
open-normal:     file format elf32-i386


Disassembly of section .text:

080480a0 <main>:
 80480a0:	55                   	push   %ebp
 80480a1:	89 e5                	mov    %esp,%ebp
 80480a3:	83 e4 f0             	and    $0xfffffff0,%esp
 80480a6:	83 ec 20             	sub    $0x20,%esp
 80480a9:	c7 04 24 d2 9f 04 08 	movl   $0x8049fd2,(%esp)
 80480b0:	e8 d7 00 00 00       	call   804818c <open>
 80480b5:	c7 44 24 08 02 00 00 	movl   $0x2,0x8(%esp)
 80480bc:	00 
 80480bd:	8d 54 24 16          	lea    0x16(%esp),%edx
 80480c1:	89 54 24 04          	mov    %edx,0x4(%esp)
 80480c5:	89 04 24             	mov    %eax,(%esp)
 80480c8:	e8 d7 00 00 00       	call   80481a4 <read>
 80480cd:	c9                   	leave  
 80480ce:	c3                   	ret    

080480cf <_start>:
 80480cf:	83 ec 1c             	sub    $0x1c,%esp
 80480d2:	8b 44 24 24          	mov    0x24(%esp),%eax
 80480d6:	89 44 24 04          	mov    %eax,0x4(%esp)
 80480da:	8b 44 24 20          	mov    0x20(%esp),%eax
 80480de:	89 04 24             	mov    %eax,(%esp)
 80480e1:	e8 ba ff ff ff       	call   80480a0 <main>
 80480e6:	89 04 24             	mov    %eax,(%esp)
 80480e9:	e8 2e 00 00 00       	call   804811c <exit>

080480ee <halt>:
 80480ee:	83 ec 1c             	sub    $0x1c,%esp
 80480f1:	6a 00                	push   $0x0
 80480f3:	cd 30                	int    $0x30
 80480f5:	83 c4 04             	add    $0x4,%esp
 80480f8:	c7 44 24 0c b4 a1 04 	movl   $0x804a1b4,0xc(%esp)
 80480ff:	08 
 8048100:	c7 44 24 08 85 9d 04 	movl   $0x8049d85,0x8(%esp)
 8048107:	08 
 8048108:	c7 44 24 04 44 00 00 	movl   $0x44,0x4(%esp)
 804810f:	00 
 8048110:	c7 04 24 dd 9f 04 08 	movl   $0x8049fdd,(%esp)
 8048117:	e8 98 01 00 00       	call   80482b4 <debug_panic>

0804811c <exit>:
 804811c:	83 ec 1c             	sub    $0x1c,%esp
 804811f:	ff 74 24 20          	pushl  0x20(%esp)
 8048123:	6a 01                	push   $0x1
 8048125:	cd 30                	int    $0x30
 8048127:	83 c4 08             	add    $0x8,%esp
 804812a:	c7 44 24 0c b4 a1 04 	movl   $0x804a1b4,0xc(%esp)
 8048131:	08 
 8048132:	c7 44 24 08 80 9d 04 	movl   $0x8049d80,0x8(%esp)
 8048139:	08 
 804813a:	c7 44 24 04 4b 00 00 	movl   $0x4b,0x4(%esp)
 8048141:	00 
 8048142:	c7 04 24 dd 9f 04 08 	movl   $0x8049fdd,(%esp)
 8048149:	e8 66 01 00 00       	call   80482b4 <debug_panic>

0804814e <exec>:
 804814e:	ff 74 24 04          	pushl  0x4(%esp)
 8048152:	6a 02                	push   $0x2
 8048154:	cd 30                	int    $0x30
 8048156:	83 c4 08             	add    $0x8,%esp
 8048159:	c3                   	ret    

0804815a <wait>:
 804815a:	ff 74 24 04          	pushl  0x4(%esp)
 804815e:	6a 03                	push   $0x3
 8048160:	cd 30                	int    $0x30
 8048162:	83 c4 08             	add    $0x8,%esp
 8048165:	c3                   	ret    

08048166 <create>:
 8048166:	ff 74 24 08          	pushl  0x8(%esp)
 804816a:	ff 74 24 04          	pushl  0x4(%esp)
 804816e:	6a 04                	push   $0x4
 8048170:	cd 30                	int    $0x30
 8048172:	83 c4 0c             	add    $0xc,%esp
 8048175:	85 c0                	test   %eax,%eax
 8048177:	0f 95 c0             	setne  %al
 804817a:	c3                   	ret    

0804817b <remove>:
 804817b:	ff 74 24 04          	pushl  0x4(%esp)
 804817f:	6a 05                	push   $0x5
 8048181:	cd 30                	int    $0x30
 8048183:	83 c4 08             	add    $0x8,%esp
 8048186:	85 c0                	test   %eax,%eax
 8048188:	0f 95 c0             	setne  %al
 804818b:	c3                   	ret    

0804818c <open>:
 804818c:	ff 74 24 04          	pushl  0x4(%esp)
 8048190:	6a 06                	push   $0x6
 8048192:	cd 30                	int    $0x30
 8048194:	83 c4 08             	add    $0x8,%esp
 8048197:	c3                   	ret    

08048198 <filesize>:
 8048198:	ff 74 24 04          	pushl  0x4(%esp)
 804819c:	6a 07                	push   $0x7
 804819e:	cd 30                	int    $0x30
 80481a0:	83 c4 08             	add    $0x8,%esp
 80481a3:	c3                   	ret    

080481a4 <read>:
 80481a4:	ff 74 24 0c          	pushl  0xc(%esp)
 80481a8:	ff 74 24 08          	pushl  0x8(%esp)
 80481ac:	ff 74 24 04          	pushl  0x4(%esp)
 80481b0:	6a 08                	push   $0x8
 80481b2:	cd 30                	int    $0x30
 80481b4:	83 c4 10             	add    $0x10,%esp
 80481b7:	c3                   	ret    

080481b8 <write>:
 80481b8:	ff 74 24 0c          	pushl  0xc(%esp)
 80481bc:	ff 74 24 08          	pushl  0x8(%esp)
 80481c0:	ff 74 24 04          	pushl  0x4(%esp)
 80481c4:	6a 09                	push   $0x9
 80481c6:	cd 30                	int    $0x30
 80481c8:	83 c4 10             	add    $0x10,%esp
 80481cb:	c3                   	ret    

080481cc <seek>:
 80481cc:	ff 74 24 08          	pushl  0x8(%esp)
 80481d0:	ff 74 24 04          	pushl  0x4(%esp)
 80481d4:	6a 0a                	push   $0xa
 80481d6:	cd 30                	int    $0x30
 80481d8:	83 c4 0c             	add    $0xc,%esp
 80481db:	c3                   	ret    

080481dc <tell>:
 80481dc:	ff 74 24 04          	pushl  0x4(%esp)
 80481e0:	6a 0b                	push   $0xb
 80481e2:	cd 30                	int    $0x30
 80481e4:	83 c4 08             	add    $0x8,%esp
 80481e7:	c3                   	ret    

080481e8 <close>:
 80481e8:	ff 74 24 04          	pushl  0x4(%esp)
 80481ec:	6a 0c                	push   $0xc
 80481ee:	cd 30                	int    $0x30
 80481f0:	83 c4 08             	add    $0x8,%esp
 80481f3:	c3                   	ret    

080481f4 <mmap>:
 80481f4:	ff 74 24 08          	pushl  0x8(%esp)
 80481f8:	ff 74 24 04          	pushl  0x4(%esp)
 80481fc:	6a 0d                	push   $0xd
 80481fe:	cd 30                	int    $0x30
 8048200:	83 c4 0c             	add    $0xc,%esp
 8048203:	c3                   	ret    

08048204 <munmap>:
 8048204:	ff 74 24 04          	pushl  0x4(%esp)
 8048208:	6a 0e                	push   $0xe
 804820a:	cd 30                	int    $0x30
 804820c:	83 c4 08             	add    $0x8,%esp
 804820f:	c3                   	ret    

08048210 <chdir>:
 8048210:	ff 74 24 04          	pushl  0x4(%esp)
 8048214:	6a 0f                	push   $0xf
 8048216:	cd 30                	int    $0x30
 8048218:	83 c4 08             	add    $0x8,%esp
 804821b:	85 c0                	test   %eax,%eax
 804821d:	0f 95 c0             	setne  %al
 8048220:	c3                   	ret    

08048221 <mkdir>:
 8048221:	ff 74 24 04          	pushl  0x4(%esp)
 8048225:	6a 10                	push   $0x10
 8048227:	cd 30                	int    $0x30
 8048229:	83 c4 08             	add    $0x8,%esp
 804822c:	85 c0                	test   %eax,%eax
 804822e:	0f 95 c0             	setne  %al
 8048231:	c3                   	ret    

08048232 <readdir>:
 8048232:	ff 74 24 08          	pushl  0x8(%esp)
 8048236:	ff 74 24 04          	pushl  0x4(%esp)
 804823a:	6a 11                	push   $0x11
 804823c:	cd 30                	int    $0x30
 804823e:	83 c4 0c             	add    $0xc,%esp
 8048241:	85 c0                	test   %eax,%eax
 8048243:	0f 95 c0             	setne  %al
 8048246:	c3                   	ret    

08048247 <isdir>:
 8048247:	ff 74 24 04          	pushl  0x4(%esp)
 804824b:	6a 12                	push   $0x12
 804824d:	cd 30                	int    $0x30
 804824f:	83 c4 08             	add    $0x8,%esp
 8048252:	85 c0                	test   %eax,%eax
 8048254:	0f 95 c0             	setne  %al
 8048257:	c3                   	ret    

08048258 <inumber>:
 8048258:	ff 74 24 04          	pushl  0x4(%esp)
 804825c:	6a 13                	push   $0x13
 804825e:	cd 30                	int    $0x30
 8048260:	83 c4 08             	add    $0x8,%esp
 8048263:	c3                   	ret    

08048264 <uthread_create>:
 8048264:	ff 74 24 08          	pushl  0x8(%esp)
 8048268:	ff 74 24 04          	pushl  0x4(%esp)
 804826c:	6a 16                	push   $0x16
 804826e:	cd 30                	int    $0x30
 8048270:	83 c4 0c             	add    $0xc,%esp
 8048273:	c3                   	ret    

08048274 <uthread_join>:
 8048274:	ff 74 24 08          	pushl  0x8(%esp)
 8048278:	ff 74 24 04          	pushl  0x4(%esp)
 804827c:	6a 17                	push   $0x17
 804827e:	cd 30                	int    $0x30
 8048280:	83 c4 0c             	add    $0xc,%esp
 8048283:	c3                   	ret    

08048284 <uthread_joinall>:
 8048284:	6a 18                	push   $0x18
 8048286:	cd 30                	int    $0x30
 8048288:	83 c4 04             	add    $0x4,%esp
 804828b:	c3                   	ret    

0804828c <uthread_exit>:
 804828c:	ff 74 24 04          	pushl  0x4(%esp)
 8048290:	6a 19                	push   $0x19
 8048292:	cd 30                	int    $0x30
 8048294:	83 c4 08             	add    $0x8,%esp
 8048297:	c3                   	ret    

08048298 <uthread_getpid>:
 8048298:	6a 14                	push   $0x14
 804829a:	cd 30                	int    $0x30
 804829c:	83 c4 04             	add    $0x4,%esp
 804829f:	c3                   	ret    

080482a0 <uthread_gettid>:
 80482a0:	6a 15                	push   $0x15
 80482a2:	cd 30                	int    $0x30
 80482a4:	83 c4 04             	add    $0x4,%esp
 80482a7:	c3                   	ret    

080482a8 <uthread_msleep>:
 80482a8:	ff 74 24 04          	pushl  0x4(%esp)
 80482ac:	6a 1a                	push   $0x1a
 80482ae:	cd 30                	int    $0x30
 80482b0:	83 c4 08             	add    $0x8,%esp
 80482b3:	c3                   	ret    

080482b4 <debug_panic>:
 80482b4:	83 ec 1c             	sub    $0x1c,%esp
 80482b7:	8b 44 24 28          	mov    0x28(%esp),%eax
 80482bb:	89 44 24 0c          	mov    %eax,0xc(%esp)
 80482bf:	8b 44 24 24          	mov    0x24(%esp),%eax
 80482c3:	89 44 24 08          	mov    %eax,0x8(%esp)
 80482c7:	8b 44 24 20          	mov    0x20(%esp),%eax
 80482cb:	89 44 24 04          	mov    %eax,0x4(%esp)
 80482cf:	c7 04 24 d8 a1 04 08 	movl   $0x804a1d8,(%esp)
 80482d6:	e8 13 06 00 00       	call   80488ee <printf>
 80482db:	8d 44 24 30          	lea    0x30(%esp),%eax
 80482df:	89 44 24 04          	mov    %eax,0x4(%esp)
 80482e3:	8b 44 24 2c          	mov    0x2c(%esp),%eax
 80482e7:	89 04 24             	mov    %eax,(%esp)
 80482ea:	e8 36 01 00 00       	call   8048425 <vprintf>
 80482ef:	c7 04 24 0a 00 00 00 	movl   $0xa,(%esp)
 80482f6:	e8 6a 00 00 00       	call   8048365 <putchar>
 80482fb:	e8 6b 01 00 00       	call   804846b <debug_backtrace>
 8048300:	c7 04 24 01 00 00 00 	movl   $0x1,(%esp)
 8048307:	e8 10 fe ff ff       	call   804811c <exit>

0804830c <flush>:
 804830c:	53                   	push   %ebx
 804830d:	83 ec 18             	sub    $0x18,%esp
 8048310:	89 c3                	mov    %eax,%ebx
 8048312:	8b 40 40             	mov    0x40(%eax),%eax
 8048315:	39 d8                	cmp    %ebx,%eax
 8048317:	76 15                	jbe    804832e <flush+0x22>
 8048319:	29 d8                	sub    %ebx,%eax
 804831b:	89 44 24 08          	mov    %eax,0x8(%esp)
 804831f:	89 5c 24 04          	mov    %ebx,0x4(%esp)
 8048323:	8b 43 48             	mov    0x48(%ebx),%eax
 8048326:	89 04 24             	mov    %eax,(%esp)
 8048329:	e8 8a fe ff ff       	call   80481b8 <write>
 804832e:	89 5b 40             	mov    %ebx,0x40(%ebx)
 8048331:	83 c4 18             	add    $0x18,%esp
 8048334:	5b                   	pop    %ebx
 8048335:	c3                   	ret    

08048336 <add_char>:
 8048336:	53                   	push   %ebx
 8048337:	83 ec 08             	sub    $0x8,%esp
 804833a:	8b 54 24 10          	mov    0x10(%esp),%edx
 804833e:	8b 5c 24 14          	mov    0x14(%esp),%ebx
 8048342:	8b 43 40             	mov    0x40(%ebx),%eax
 8048345:	8d 48 01             	lea    0x1(%eax),%ecx
 8048348:	89 4b 40             	mov    %ecx,0x40(%ebx)
 804834b:	88 10                	mov    %dl,(%eax)
 804834d:	8d 43 40             	lea    0x40(%ebx),%eax
 8048350:	39 43 40             	cmp    %eax,0x40(%ebx)
 8048353:	72 07                	jb     804835c <add_char+0x26>
 8048355:	89 d8                	mov    %ebx,%eax
 8048357:	e8 b0 ff ff ff       	call   804830c <flush>
 804835c:	83 43 44 01          	addl   $0x1,0x44(%ebx)
 8048360:	83 c4 08             	add    $0x8,%esp
 8048363:	5b                   	pop    %ebx
 8048364:	c3                   	ret    

08048365 <putchar>:
 8048365:	53                   	push   %ebx
 8048366:	83 ec 28             	sub    $0x28,%esp
 8048369:	8b 5c 24 30          	mov    0x30(%esp),%ebx
 804836d:	88 5c 24 1f          	mov    %bl,0x1f(%esp)
 8048371:	c7 44 24 08 01 00 00 	movl   $0x1,0x8(%esp)
 8048378:	00 
 8048379:	8d 44 24 1f          	lea    0x1f(%esp),%eax
 804837d:	89 44 24 04          	mov    %eax,0x4(%esp)
 8048381:	c7 04 24 01 00 00 00 	movl   $0x1,(%esp)
 8048388:	e8 2b fe ff ff       	call   80481b8 <write>
 804838d:	89 d8                	mov    %ebx,%eax
 804838f:	83 c4 28             	add    $0x28,%esp
 8048392:	5b                   	pop    %ebx
 8048393:	c3                   	ret    

08048394 <puts>:
 8048394:	57                   	push   %edi
 8048395:	83 ec 18             	sub    $0x18,%esp
 8048398:	8b 54 24 20          	mov    0x20(%esp),%edx
 804839c:	89 d7                	mov    %edx,%edi
 804839e:	b8 00 00 00 00       	mov    $0x0,%eax
 80483a3:	b9 ff ff ff ff       	mov    $0xffffffff,%ecx
 80483a8:	f2 ae                	repnz scas %es:(%edi),%al
 80483aa:	f7 d1                	not    %ecx
 80483ac:	83 e9 01             	sub    $0x1,%ecx
 80483af:	89 4c 24 08          	mov    %ecx,0x8(%esp)
 80483b3:	89 54 24 04          	mov    %edx,0x4(%esp)
 80483b7:	c7 04 24 01 00 00 00 	movl   $0x1,(%esp)
 80483be:	e8 f5 fd ff ff       	call   80481b8 <write>
 80483c3:	c7 04 24 0a 00 00 00 	movl   $0xa,(%esp)
 80483ca:	e8 96 ff ff ff       	call   8048365 <putchar>
 80483cf:	b8 00 00 00 00       	mov    $0x0,%eax
 80483d4:	83 c4 18             	add    $0x18,%esp
 80483d7:	5f                   	pop    %edi
 80483d8:	c3                   	ret    

080483d9 <vhprintf>:
 80483d9:	53                   	push   %ebx
 80483da:	83 ec 68             	sub    $0x68,%esp
 80483dd:	8d 5c 24 14          	lea    0x14(%esp),%ebx
 80483e1:	89 5c 24 54          	mov    %ebx,0x54(%esp)
 80483e5:	c7 44 24 58 00 00 00 	movl   $0x0,0x58(%esp)
 80483ec:	00 
 80483ed:	8b 44 24 70          	mov    0x70(%esp),%eax
 80483f1:	89 44 24 5c          	mov    %eax,0x5c(%esp)
 80483f5:	89 5c 24 0c          	mov    %ebx,0xc(%esp)
 80483f9:	c7 44 24 08 36 83 04 	movl   $0x8048336,0x8(%esp)
 8048400:	08 
 8048401:	8b 44 24 78          	mov    0x78(%esp),%eax
 8048405:	89 44 24 04          	mov    %eax,0x4(%esp)
 8048409:	8b 44 24 74          	mov    0x74(%esp),%eax
 804840d:	89 04 24             	mov    %eax,(%esp)
 8048410:	e8 1f 05 00 00       	call   8048934 <__vprintf>
 8048415:	89 d8                	mov    %ebx,%eax
 8048417:	e8 f0 fe ff ff       	call   804830c <flush>
 804841c:	8b 44 24 58          	mov    0x58(%esp),%eax
 8048420:	83 c4 68             	add    $0x68,%esp
 8048423:	5b                   	pop    %ebx
 8048424:	c3                   	ret    

08048425 <vprintf>:
 8048425:	83 ec 1c             	sub    $0x1c,%esp
 8048428:	8b 44 24 24          	mov    0x24(%esp),%eax
 804842c:	89 44 24 08          	mov    %eax,0x8(%esp)
 8048430:	8b 44 24 20          	mov    0x20(%esp),%eax
 8048434:	89 44 24 04          	mov    %eax,0x4(%esp)
 8048438:	c7 04 24 01 00 00 00 	movl   $0x1,(%esp)
 804843f:	e8 95 ff ff ff       	call   80483d9 <vhprintf>
 8048444:	83 c4 1c             	add    $0x1c,%esp
 8048447:	c3                   	ret    

08048448 <hprintf>:
 8048448:	83 ec 1c             	sub    $0x1c,%esp
 804844b:	8d 44 24 28          	lea    0x28(%esp),%eax
 804844f:	89 44 24 08          	mov    %eax,0x8(%esp)
 8048453:	8b 44 24 24          	mov    0x24(%esp),%eax
 8048457:	89 44 24 04          	mov    %eax,0x4(%esp)
 804845b:	8b 44 24 20          	mov    0x20(%esp),%eax
 804845f:	89 04 24             	mov    %eax,(%esp)
 8048462:	e8 72 ff ff ff       	call   80483d9 <vhprintf>
 8048467:	83 c4 1c             	add    $0x1c,%esp
 804846a:	c3                   	ret    

0804846b <debug_backtrace>:
 804846b:	55                   	push   %ebp
 804846c:	89 e5                	mov    %esp,%ebp
 804846e:	53                   	push   %ebx
 804846f:	83 ec 14             	sub    $0x14,%esp
 8048472:	8b 45 04             	mov    0x4(%ebp),%eax
 8048475:	89 44 24 04          	mov    %eax,0x4(%esp)
 8048479:	c7 04 24 f3 9f 04 08 	movl   $0x8049ff3,(%esp)
 8048480:	e8 69 04 00 00       	call   80488ee <printf>
 8048485:	8b 5d 00             	mov    0x0(%ebp),%ebx
 8048488:	81 fb ff 0f 00 00    	cmp    $0xfff,%ebx
 804848e:	76 27                	jbe    80484b7 <debug_backtrace+0x4c>
 8048490:	83 3b 00             	cmpl   $0x0,(%ebx)
 8048493:	74 22                	je     80484b7 <debug_backtrace+0x4c>
 8048495:	8b 43 04             	mov    0x4(%ebx),%eax
 8048498:	89 44 24 04          	mov    %eax,0x4(%esp)
 804849c:	c7 04 24 fe 9f 04 08 	movl   $0x8049ffe,(%esp)
 80484a3:	e8 46 04 00 00       	call   80488ee <printf>
 80484a8:	8b 1b                	mov    (%ebx),%ebx
 80484aa:	81 fb ff 0f 00 00    	cmp    $0xfff,%ebx
 80484b0:	76 05                	jbe    80484b7 <debug_backtrace+0x4c>
 80484b2:	83 3b 00             	cmpl   $0x0,(%ebx)
 80484b5:	75 de                	jne    8048495 <debug_backtrace+0x2a>
 80484b7:	c7 04 24 df a0 04 08 	movl   $0x804a0df,(%esp)
 80484be:	e8 d1 fe ff ff       	call   8048394 <puts>
 80484c3:	80 3d b4 b2 04 08 00 	cmpb   $0x0,0x804b2b4
 80484ca:	75 13                	jne    80484df <debug_backtrace+0x74>
 80484cc:	c6 05 b4 b2 04 08 01 	movb   $0x1,0x804b2b4
 80484d3:	c7 04 24 00 a2 04 08 	movl   $0x804a200,(%esp)
 80484da:	e8 b5 fe ff ff       	call   8048394 <puts>
 80484df:	83 c4 14             	add    $0x14,%esp
 80484e2:	5b                   	pop    %ebx
 80484e3:	5d                   	pop    %ebp
 80484e4:	c3                   	ret    
 80484e5:	90                   	nop
 80484e6:	90                   	nop
 80484e7:	90                   	nop
 80484e8:	90                   	nop
 80484e9:	90                   	nop
 80484ea:	90                   	nop
 80484eb:	90                   	nop
 80484ec:	90                   	nop
 80484ed:	90                   	nop
 80484ee:	90                   	nop
 80484ef:	90                   	nop

080484f0 <vsnprintf_helper>:
 80484f0:	53                   	push   %ebx
 80484f1:	8b 5c 24 08          	mov    0x8(%esp),%ebx
 80484f5:	8b 44 24 0c          	mov    0xc(%esp),%eax
 80484f9:	8b 50 04             	mov    0x4(%eax),%edx
 80484fc:	8d 4a 01             	lea    0x1(%edx),%ecx
 80484ff:	89 48 04             	mov    %ecx,0x4(%eax)
 8048502:	3b 50 08             	cmp    0x8(%eax),%edx
 8048505:	7d 09                	jge    8048510 <vsnprintf_helper+0x20>
 8048507:	8b 10                	mov    (%eax),%edx
 8048509:	8d 4a 01             	lea    0x1(%edx),%ecx
 804850c:	89 08                	mov    %ecx,(%eax)
 804850e:	88 1a                	mov    %bl,(%edx)
 8048510:	5b                   	pop    %ebx
 8048511:	c3                   	ret    

08048512 <output_dup>:
 8048512:	55                   	push   %ebp
 8048513:	57                   	push   %edi
 8048514:	56                   	push   %esi
 8048515:	53                   	push   %ebx
 8048516:	83 ec 1c             	sub    $0x1c,%esp
 8048519:	8b 7c 24 30          	mov    0x30(%esp),%edi
 804851d:	85 d2                	test   %edx,%edx
 804851f:	74 15                	je     8048536 <output_dup+0x24>
 8048521:	89 ce                	mov    %ecx,%esi
 8048523:	89 d3                	mov    %edx,%ebx
 8048525:	0f be e8             	movsbl %al,%ebp
 8048528:	89 7c 24 04          	mov    %edi,0x4(%esp)
 804852c:	89 2c 24             	mov    %ebp,(%esp)
 804852f:	ff d6                	call   *%esi
 8048531:	83 eb 01             	sub    $0x1,%ebx
 8048534:	75 f2                	jne    8048528 <output_dup+0x16>
 8048536:	83 c4 1c             	add    $0x1c,%esp
 8048539:	5b                   	pop    %ebx
 804853a:	5e                   	pop    %esi
 804853b:	5f                   	pop    %edi
 804853c:	5d                   	pop    %ebp
 804853d:	c3                   	ret    

0804853e <format_integer>:
 804853e:	55                   	push   %ebp
 804853f:	57                   	push   %edi
 8048540:	56                   	push   %esi
 8048541:	53                   	push   %ebx
 8048542:	81 ec 8c 00 00 00    	sub    $0x8c,%esp
 8048548:	89 c6                	mov    %eax,%esi
 804854a:	89 d7                	mov    %edx,%edi
 804854c:	8b 84 24 a0 00 00 00 	mov    0xa0(%esp),%eax
 8048553:	c7 44 24 30 00 00 00 	movl   $0x0,0x30(%esp)
 804855a:	00 
 804855b:	84 c9                	test   %cl,%cl
 804855d:	74 4c                	je     80485ab <format_integer+0x6d>
 804855f:	8b 8c 24 a8 00 00 00 	mov    0xa8(%esp),%ecx
 8048566:	8b 11                	mov    (%ecx),%edx
 8048568:	f6 c2 02             	test   $0x2,%dl
 804856b:	74 14                	je     8048581 <format_integer+0x43>
 804856d:	3c 01                	cmp    $0x1,%al
 804856f:	19 c0                	sbb    %eax,%eax
 8048571:	89 44 24 30          	mov    %eax,0x30(%esp)
 8048575:	83 64 24 30 fe       	andl   $0xfffffffe,0x30(%esp)
 804857a:	83 44 24 30 2d       	addl   $0x2d,0x30(%esp)
 804857f:	eb 2a                	jmp    80485ab <format_integer+0x6d>
 8048581:	f6 c2 04             	test   $0x4,%dl
 8048584:	74 14                	je     804859a <format_integer+0x5c>
 8048586:	3c 01                	cmp    $0x1,%al
 8048588:	19 c0                	sbb    %eax,%eax
 804858a:	89 44 24 30          	mov    %eax,0x30(%esp)
 804858e:	83 64 24 30 f3       	andl   $0xfffffff3,0x30(%esp)
 8048593:	83 44 24 30 2d       	addl   $0x2d,0x30(%esp)
 8048598:	eb 11                	jmp    80485ab <format_integer+0x6d>
 804859a:	3c 01                	cmp    $0x1,%al
 804859c:	19 c0                	sbb    %eax,%eax
 804859e:	89 44 24 30          	mov    %eax,0x30(%esp)
 80485a2:	f7 54 24 30          	notl   0x30(%esp)
 80485a6:	83 64 24 30 2d       	andl   $0x2d,0x30(%esp)
 80485ab:	8b 84 24 a8 00 00 00 	mov    0xa8(%esp),%eax
 80485b2:	8b 00                	mov    (%eax),%eax
 80485b4:	89 44 24 38          	mov    %eax,0x38(%esp)
 80485b8:	83 e0 08             	and    $0x8,%eax
 80485bb:	89 44 24 3c          	mov    %eax,0x3c(%esp)
 80485bf:	74 5c                	je     804861d <format_integer+0xdf>
 80485c1:	89 f8                	mov    %edi,%eax
 80485c3:	09 f0                	or     %esi,%eax
 80485c5:	0f 84 e9 00 00 00    	je     80486b4 <format_integer+0x176>
 80485cb:	8b 84 24 a4 00 00 00 	mov    0xa4(%esp),%eax
 80485d2:	8b 40 08             	mov    0x8(%eax),%eax
 80485d5:	89 44 24 34          	mov    %eax,0x34(%esp)
 80485d9:	eb 08                	jmp    80485e3 <format_integer+0xa5>
 80485db:	c7 44 24 34 00 00 00 	movl   $0x0,0x34(%esp)
 80485e2:	00 
 80485e3:	8b 84 24 a4 00 00 00 	mov    0xa4(%esp),%eax
 80485ea:	8b 40 04             	mov    0x4(%eax),%eax
 80485ed:	89 44 24 28          	mov    %eax,0x28(%esp)
 80485f1:	8b 84 24 a4 00 00 00 	mov    0xa4(%esp),%eax
 80485f8:	8b 00                	mov    (%eax),%eax
 80485fa:	89 44 24 18          	mov    %eax,0x18(%esp)
 80485fe:	89 c1                	mov    %eax,%ecx
 8048600:	c1 f9 1f             	sar    $0x1f,%ecx
 8048603:	89 4c 24 1c          	mov    %ecx,0x1c(%esp)
 8048607:	bb 00 00 00 00       	mov    $0x0,%ebx
 804860c:	8d 6c 24 40          	lea    0x40(%esp),%ebp
 8048610:	8b 44 24 38          	mov    0x38(%esp),%eax
 8048614:	83 e0 20             	and    $0x20,%eax
 8048617:	89 44 24 2c          	mov    %eax,0x2c(%esp)
 804861b:	eb 17                	jmp    8048634 <format_integer+0xf6>
 804861d:	89 f8                	mov    %edi,%eax
 804861f:	09 f0                	or     %esi,%eax
 8048621:	75 b8                	jne    80485db <format_integer+0x9d>
 8048623:	c7 44 24 34 00 00 00 	movl   $0x0,0x34(%esp)
 804862a:	00 
 804862b:	8d 5c 24 40          	lea    0x40(%esp),%ebx
 804862f:	e9 92 00 00 00       	jmp    80486c6 <format_integer+0x188>
 8048634:	83 7c 24 2c 00       	cmpl   $0x0,0x2c(%esp)
 8048639:	74 1c                	je     8048657 <format_integer+0x119>
 804863b:	85 db                	test   %ebx,%ebx
 804863d:	7e 18                	jle    8048657 <format_integer+0x119>
 804863f:	8b 8c 24 a4 00 00 00 	mov    0xa4(%esp),%ecx
 8048646:	89 d8                	mov    %ebx,%eax
 8048648:	99                   	cltd   
 8048649:	f7 79 0c             	idivl  0xc(%ecx)
 804864c:	85 d2                	test   %edx,%edx
 804864e:	75 07                	jne    8048657 <format_integer+0x119>
 8048650:	c6 45 00 2c          	movb   $0x2c,0x0(%ebp)
 8048654:	8d 6d 01             	lea    0x1(%ebp),%ebp
 8048657:	8d 45 01             	lea    0x1(%ebp),%eax
 804865a:	89 44 24 24          	mov    %eax,0x24(%esp)
 804865e:	8b 44 24 18          	mov    0x18(%esp),%eax
 8048662:	8b 54 24 1c          	mov    0x1c(%esp),%edx
 8048666:	89 44 24 08          	mov    %eax,0x8(%esp)
 804866a:	89 54 24 0c          	mov    %edx,0xc(%esp)
 804866e:	89 34 24             	mov    %esi,(%esp)
 8048671:	89 7c 24 04          	mov    %edi,0x4(%esp)
 8048675:	e8 d0 16 00 00       	call   8049d4a <__umoddi3>
 804867a:	8b 4c 24 28          	mov    0x28(%esp),%ecx
 804867e:	0f b6 04 01          	movzbl (%ecx,%eax,1),%eax
 8048682:	88 45 00             	mov    %al,0x0(%ebp)
 8048685:	8b 44 24 18          	mov    0x18(%esp),%eax
 8048689:	8b 54 24 1c          	mov    0x1c(%esp),%edx
 804868d:	89 44 24 08          	mov    %eax,0x8(%esp)
 8048691:	89 54 24 0c          	mov    %edx,0xc(%esp)
 8048695:	89 34 24             	mov    %esi,(%esp)
 8048698:	89 7c 24 04          	mov    %edi,0x4(%esp)
 804869c:	e8 86 16 00 00       	call   8049d27 <__udivdi3>
 80486a1:	89 c6                	mov    %eax,%esi
 80486a3:	89 d7                	mov    %edx,%edi
 80486a5:	83 c3 01             	add    $0x1,%ebx
 80486a8:	89 d1                	mov    %edx,%ecx
 80486aa:	09 c1                	or     %eax,%ecx
 80486ac:	74 14                	je     80486c2 <format_integer+0x184>
 80486ae:	8b 6c 24 24          	mov    0x24(%esp),%ebp
 80486b2:	eb 80                	jmp    8048634 <format_integer+0xf6>
 80486b4:	c7 44 24 34 00 00 00 	movl   $0x0,0x34(%esp)
 80486bb:	00 
 80486bc:	8d 5c 24 40          	lea    0x40(%esp),%ebx
 80486c0:	eb 04                	jmp    80486c6 <format_integer+0x188>
 80486c2:	8b 5c 24 24          	mov    0x24(%esp),%ebx
 80486c6:	8b 84 24 a8 00 00 00 	mov    0xa8(%esp),%eax
 80486cd:	8b 50 08             	mov    0x8(%eax),%edx
 80486d0:	85 d2                	test   %edx,%edx
 80486d2:	b8 01 00 00 00       	mov    $0x1,%eax
 80486d7:	0f 48 d0             	cmovs  %eax,%edx
 80486da:	8d 7c 24 40          	lea    0x40(%esp),%edi
 80486de:	89 d8                	mov    %ebx,%eax
 80486e0:	29 f8                	sub    %edi,%eax
 80486e2:	39 c2                	cmp    %eax,%edx
 80486e4:	7e 1f                	jle    8048705 <format_integer+0x1c7>
 80486e6:	8d 44 24 7f          	lea    0x7f(%esp),%eax
 80486ea:	39 c3                	cmp    %eax,%ebx
 80486ec:	73 17                	jae    8048705 <format_integer+0x1c7>
 80486ee:	89 f9                	mov    %edi,%ecx
 80486f0:	89 c6                	mov    %eax,%esi
 80486f2:	83 c3 01             	add    $0x1,%ebx
 80486f5:	c6 43 ff 30          	movb   $0x30,-0x1(%ebx)
 80486f9:	89 d8                	mov    %ebx,%eax
 80486fb:	29 c8                	sub    %ecx,%eax
 80486fd:	39 c2                	cmp    %eax,%edx
 80486ff:	7e 04                	jle    8048705 <format_integer+0x1c7>
 8048701:	39 f3                	cmp    %esi,%ebx
 8048703:	75 ed                	jne    80486f2 <format_integer+0x1b4>
 8048705:	83 7c 24 3c 00       	cmpl   $0x0,0x3c(%esp)
 804870a:	74 20                	je     804872c <format_integer+0x1ee>
 804870c:	8b 84 24 a4 00 00 00 	mov    0xa4(%esp),%eax
 8048713:	83 38 08             	cmpl   $0x8,(%eax)
 8048716:	75 14                	jne    804872c <format_integer+0x1ee>
 8048718:	8d 44 24 40          	lea    0x40(%esp),%eax
 804871c:	39 c3                	cmp    %eax,%ebx
 804871e:	74 06                	je     8048726 <format_integer+0x1e8>
 8048720:	80 7b ff 30          	cmpb   $0x30,-0x1(%ebx)
 8048724:	74 06                	je     804872c <format_integer+0x1ee>
 8048726:	c6 03 30             	movb   $0x30,(%ebx)
 8048729:	8d 5b 01             	lea    0x1(%ebx),%ebx
 804872c:	29 df                	sub    %ebx,%edi
 804872e:	8b 84 24 a8 00 00 00 	mov    0xa8(%esp),%eax
 8048735:	03 78 04             	add    0x4(%eax),%edi
 8048738:	83 7c 24 34 01       	cmpl   $0x1,0x34(%esp)
 804873d:	19 c0                	sbb    %eax,%eax
 804873f:	f7 d0                	not    %eax
 8048741:	83 e0 02             	and    $0x2,%eax
 8048744:	83 7c 24 30 00       	cmpl   $0x0,0x30(%esp)
 8048749:	0f 95 c1             	setne  %cl
 804874c:	89 ce                	mov    %ecx,%esi
 804874e:	29 c7                	sub    %eax,%edi
 8048750:	0f b6 c1             	movzbl %cl,%eax
 8048753:	29 c7                	sub    %eax,%edi
 8048755:	b8 00 00 00 00       	mov    $0x0,%eax
 804875a:	0f 48 f8             	cmovs  %eax,%edi
 804875d:	f6 44 24 38 11       	testb  $0x11,0x38(%esp)
 8048762:	75 1d                	jne    8048781 <format_integer+0x243>
 8048764:	8b 84 24 b0 00 00 00 	mov    0xb0(%esp),%eax
 804876b:	89 04 24             	mov    %eax,(%esp)
 804876e:	8b 8c 24 ac 00 00 00 	mov    0xac(%esp),%ecx
 8048775:	89 fa                	mov    %edi,%edx
 8048777:	b8 20 00 00 00       	mov    $0x20,%eax
 804877c:	e8 91 fd ff ff       	call   8048512 <output_dup>
 8048781:	89 f0                	mov    %esi,%eax
 8048783:	84 c0                	test   %al,%al
 8048785:	74 19                	je     80487a0 <format_integer+0x262>
 8048787:	8b 84 24 b0 00 00 00 	mov    0xb0(%esp),%eax
 804878e:	89 44 24 04          	mov    %eax,0x4(%esp)
 8048792:	8b 44 24 30          	mov    0x30(%esp),%eax
 8048796:	89 04 24             	mov    %eax,(%esp)
 8048799:	ff 94 24 ac 00 00 00 	call   *0xac(%esp)
 80487a0:	83 7c 24 34 00       	cmpl   $0x0,0x34(%esp)
 80487a5:	74 33                	je     80487da <format_integer+0x29c>
 80487a7:	8b 84 24 b0 00 00 00 	mov    0xb0(%esp),%eax
 80487ae:	89 44 24 04          	mov    %eax,0x4(%esp)
 80487b2:	c7 04 24 30 00 00 00 	movl   $0x30,(%esp)
 80487b9:	ff 94 24 ac 00 00 00 	call   *0xac(%esp)
 80487c0:	8b 84 24 b0 00 00 00 	mov    0xb0(%esp),%eax
 80487c7:	89 44 24 04          	mov    %eax,0x4(%esp)
 80487cb:	0f be 44 24 34       	movsbl 0x34(%esp),%eax
 80487d0:	89 04 24             	mov    %eax,(%esp)
 80487d3:	ff 94 24 ac 00 00 00 	call   *0xac(%esp)
 80487da:	8b 84 24 a8 00 00 00 	mov    0xa8(%esp),%eax
 80487e1:	f6 00 10             	testb  $0x10,(%eax)
 80487e4:	74 1d                	je     8048803 <format_integer+0x2c5>
 80487e6:	8b 84 24 b0 00 00 00 	mov    0xb0(%esp),%eax
 80487ed:	89 04 24             	mov    %eax,(%esp)
 80487f0:	8b 8c 24 ac 00 00 00 	mov    0xac(%esp),%ecx
 80487f7:	89 fa                	mov    %edi,%edx
 80487f9:	b8 30 00 00 00       	mov    $0x30,%eax
 80487fe:	e8 0f fd ff ff       	call   8048512 <output_dup>
 8048803:	8d 44 24 40          	lea    0x40(%esp),%eax
 8048807:	39 c3                	cmp    %eax,%ebx
 8048809:	76 2b                	jbe    8048836 <format_integer+0x2f8>
 804880b:	89 c6                	mov    %eax,%esi
 804880d:	89 7c 24 18          	mov    %edi,0x18(%esp)
 8048811:	8b bc 24 ac 00 00 00 	mov    0xac(%esp),%edi
 8048818:	8b ac 24 b0 00 00 00 	mov    0xb0(%esp),%ebp
 804881f:	83 eb 01             	sub    $0x1,%ebx
 8048822:	89 6c 24 04          	mov    %ebp,0x4(%esp)
 8048826:	0f be 03             	movsbl (%ebx),%eax
 8048829:	89 04 24             	mov    %eax,(%esp)
 804882c:	ff d7                	call   *%edi
 804882e:	39 f3                	cmp    %esi,%ebx
 8048830:	75 ed                	jne    804881f <format_integer+0x2e1>
 8048832:	8b 7c 24 18          	mov    0x18(%esp),%edi
 8048836:	8b 84 24 a8 00 00 00 	mov    0xa8(%esp),%eax
 804883d:	f6 00 01             	testb  $0x1,(%eax)
 8048840:	74 1d                	je     804885f <format_integer+0x321>
 8048842:	8b 84 24 b0 00 00 00 	mov    0xb0(%esp),%eax
 8048849:	89 04 24             	mov    %eax,(%esp)
 804884c:	8b 8c 24 ac 00 00 00 	mov    0xac(%esp),%ecx
 8048853:	89 fa                	mov    %edi,%edx
 8048855:	b8 20 00 00 00       	mov    $0x20,%eax
 804885a:	e8 b3 fc ff ff       	call   8048512 <output_dup>
 804885f:	81 c4 8c 00 00 00    	add    $0x8c,%esp
 8048865:	5b                   	pop    %ebx
 8048866:	5e                   	pop    %esi
 8048867:	5f                   	pop    %edi
 8048868:	5d                   	pop    %ebp
 8048869:	c3                   	ret    

0804886a <format_string>:
 804886a:	55                   	push   %ebp
 804886b:	57                   	push   %edi
 804886c:	56                   	push   %esi
 804886d:	53                   	push   %ebx
 804886e:	83 ec 1c             	sub    $0x1c,%esp
 8048871:	89 c5                	mov    %eax,%ebp
 8048873:	89 d3                	mov    %edx,%ebx
 8048875:	89 54 24 08          	mov    %edx,0x8(%esp)
 8048879:	89 4c 24 0c          	mov    %ecx,0xc(%esp)
 804887d:	8b 74 24 30          	mov    0x30(%esp),%esi
 8048881:	8b 7c 24 34          	mov    0x34(%esp),%edi
 8048885:	8b 51 04             	mov    0x4(%ecx),%edx
 8048888:	39 da                	cmp    %ebx,%edx
 804888a:	7e 16                	jle    80488a2 <format_string+0x38>
 804888c:	f6 01 01             	testb  $0x1,(%ecx)
 804888f:	75 11                	jne    80488a2 <format_string+0x38>
 8048891:	29 da                	sub    %ebx,%edx
 8048893:	89 3c 24             	mov    %edi,(%esp)
 8048896:	89 f1                	mov    %esi,%ecx
 8048898:	b8 20 00 00 00       	mov    $0x20,%eax
 804889d:	e8 70 fc ff ff       	call   8048512 <output_dup>
 80488a2:	8b 44 24 08          	mov    0x8(%esp),%eax
 80488a6:	85 c0                	test   %eax,%eax
 80488a8:	7e 17                	jle    80488c1 <format_string+0x57>
 80488aa:	89 eb                	mov    %ebp,%ebx
 80488ac:	01 c5                	add    %eax,%ebp
 80488ae:	89 7c 24 04          	mov    %edi,0x4(%esp)
 80488b2:	0f be 03             	movsbl (%ebx),%eax
 80488b5:	89 04 24             	mov    %eax,(%esp)
 80488b8:	ff d6                	call   *%esi
 80488ba:	83 c3 01             	add    $0x1,%ebx
 80488bd:	39 eb                	cmp    %ebp,%ebx
 80488bf:	75 ed                	jne    80488ae <format_string+0x44>
 80488c1:	8b 44 24 0c          	mov    0xc(%esp),%eax
 80488c5:	8b 50 04             	mov    0x4(%eax),%edx
 80488c8:	39 54 24 08          	cmp    %edx,0x8(%esp)
 80488cc:	7d 18                	jge    80488e6 <format_string+0x7c>
 80488ce:	f6 00 01             	testb  $0x1,(%eax)
 80488d1:	74 13                	je     80488e6 <format_string+0x7c>
 80488d3:	2b 54 24 08          	sub    0x8(%esp),%edx
 80488d7:	89 3c 24             	mov    %edi,(%esp)
 80488da:	89 f1                	mov    %esi,%ecx
 80488dc:	b8 20 00 00 00       	mov    $0x20,%eax
 80488e1:	e8 2c fc ff ff       	call   8048512 <output_dup>
 80488e6:	83 c4 1c             	add    $0x1c,%esp
 80488e9:	5b                   	pop    %ebx
 80488ea:	5e                   	pop    %esi
 80488eb:	5f                   	pop    %edi
 80488ec:	5d                   	pop    %ebp
 80488ed:	c3                   	ret    

080488ee <printf>:
 80488ee:	83 ec 1c             	sub    $0x1c,%esp
 80488f1:	8d 44 24 24          	lea    0x24(%esp),%eax
 80488f5:	89 44 24 04          	mov    %eax,0x4(%esp)
 80488f9:	8b 44 24 20          	mov    0x20(%esp),%eax
 80488fd:	89 04 24             	mov    %eax,(%esp)
 8048900:	e8 20 fb ff ff       	call   8048425 <vprintf>
 8048905:	83 c4 1c             	add    $0x1c,%esp
 8048908:	c3                   	ret    

08048909 <__printf>:
 8048909:	83 ec 1c             	sub    $0x1c,%esp
 804890c:	8d 44 24 2c          	lea    0x2c(%esp),%eax
 8048910:	8b 54 24 28          	mov    0x28(%esp),%edx
 8048914:	89 54 24 0c          	mov    %edx,0xc(%esp)
 8048918:	8b 54 24 24          	mov    0x24(%esp),%edx
 804891c:	89 54 24 08          	mov    %edx,0x8(%esp)
 8048920:	89 44 24 04          	mov    %eax,0x4(%esp)
 8048924:	8b 44 24 20          	mov    0x20(%esp),%eax
 8048928:	89 04 24             	mov    %eax,(%esp)
 804892b:	e8 04 00 00 00       	call   8048934 <__vprintf>
 8048930:	83 c4 1c             	add    $0x1c,%esp
 8048933:	c3                   	ret    

08048934 <__vprintf>:
 8048934:	55                   	push   %ebp
 8048935:	57                   	push   %edi
 8048936:	56                   	push   %esi
 8048937:	53                   	push   %ebx
 8048938:	83 ec 5c             	sub    $0x5c,%esp
 804893b:	8b 7c 24 70          	mov    0x70(%esp),%edi
 804893f:	8b 6c 24 74          	mov    0x74(%esp),%ebp
 8048943:	0f b6 07             	movzbl (%edi),%eax
 8048946:	84 c0                	test   %al,%al
 8048948:	0f 84 1c 06 00 00    	je     8048f6a <__vprintf+0x636>
 804894e:	3c 25                	cmp    $0x25,%al
 8048950:	74 19                	je     804896b <__vprintf+0x37>
 8048952:	8b 5c 24 7c          	mov    0x7c(%esp),%ebx
 8048956:	89 5c 24 04          	mov    %ebx,0x4(%esp)
 804895a:	0f be c0             	movsbl %al,%eax
 804895d:	89 04 24             	mov    %eax,(%esp)
 8048960:	ff 54 24 78          	call   *0x78(%esp)
 8048964:	89 fb                	mov    %edi,%ebx
 8048966:	e9 d5 05 00 00       	jmp    8048f40 <__vprintf+0x60c>
 804896b:	8d 77 01             	lea    0x1(%edi),%esi
 804896e:	b9 00 00 00 00       	mov    $0x0,%ecx
 8048973:	80 7f 01 25          	cmpb   $0x25,0x1(%edi)
 8048977:	75 1c                	jne    8048995 <__vprintf+0x61>
 8048979:	8b 44 24 7c          	mov    0x7c(%esp),%eax
 804897d:	89 44 24 04          	mov    %eax,0x4(%esp)
 8048981:	c7 04 24 25 00 00 00 	movl   $0x25,(%esp)
 8048988:	ff 54 24 78          	call   *0x78(%esp)
 804898c:	89 f3                	mov    %esi,%ebx
 804898e:	e9 ad 05 00 00       	jmp    8048f40 <__vprintf+0x60c>
 8048993:	89 d6                	mov    %edx,%esi
 8048995:	8d 56 01             	lea    0x1(%esi),%edx
 8048998:	0f b6 5a ff          	movzbl -0x1(%edx),%ebx
 804899c:	8d 43 e0             	lea    -0x20(%ebx),%eax
 804899f:	3c 10                	cmp    $0x10,%al
 80489a1:	77 29                	ja     80489cc <__vprintf+0x98>
 80489a3:	0f b6 c0             	movzbl %al,%eax
 80489a6:	ff 24 85 8c 9d 04 08 	jmp    *0x8049d8c(,%eax,4)
 80489ad:	83 c9 01             	or     $0x1,%ecx
 80489b0:	eb e1                	jmp    8048993 <__vprintf+0x5f>
 80489b2:	83 c9 02             	or     $0x2,%ecx
 80489b5:	eb dc                	jmp    8048993 <__vprintf+0x5f>
 80489b7:	83 c9 04             	or     $0x4,%ecx
 80489ba:	eb d7                	jmp    8048993 <__vprintf+0x5f>
 80489bc:	83 c9 08             	or     $0x8,%ecx
 80489bf:	90                   	nop
 80489c0:	eb d1                	jmp    8048993 <__vprintf+0x5f>
 80489c2:	83 c9 10             	or     $0x10,%ecx
 80489c5:	eb cc                	jmp    8048993 <__vprintf+0x5f>
 80489c7:	83 c9 20             	or     $0x20,%ecx
 80489ca:	eb c7                	jmp    8048993 <__vprintf+0x5f>
 80489cc:	89 f0                	mov    %esi,%eax
 80489ce:	89 4c 24 40          	mov    %ecx,0x40(%esp)
 80489d2:	f6 c1 01             	test   $0x1,%cl
 80489d5:	74 07                	je     80489de <__vprintf+0xaa>
 80489d7:	83 e1 ef             	and    $0xffffffef,%ecx
 80489da:	89 4c 24 40          	mov    %ecx,0x40(%esp)
 80489de:	8b 4c 24 40          	mov    0x40(%esp),%ecx
 80489e2:	f6 c1 02             	test   $0x2,%cl
 80489e5:	74 07                	je     80489ee <__vprintf+0xba>
 80489e7:	83 e1 fb             	and    $0xfffffffb,%ecx
 80489ea:	89 4c 24 40          	mov    %ecx,0x40(%esp)
 80489ee:	c7 44 24 44 00 00 00 	movl   $0x0,0x44(%esp)
 80489f5:	00 
 80489f6:	80 fb 2a             	cmp    $0x2a,%bl
 80489f9:	74 15                	je     8048a10 <__vprintf+0xdc>
 80489fb:	0f b6 00             	movzbl (%eax),%eax
 80489fe:	0f be c8             	movsbl %al,%ecx
 8048a01:	83 e9 30             	sub    $0x30,%ecx
 8048a04:	ba 00 00 00 00       	mov    $0x0,%edx
 8048a09:	83 f9 09             	cmp    $0x9,%ecx
 8048a0c:	76 10                	jbe    8048a1e <__vprintf+0xea>
 8048a0e:	eb 40                	jmp    8048a50 <__vprintf+0x11c>
 8048a10:	8b 45 00             	mov    0x0(%ebp),%eax
 8048a13:	89 44 24 44          	mov    %eax,0x44(%esp)
 8048a17:	8d 6d 04             	lea    0x4(%ebp),%ebp
 8048a1a:	89 d6                	mov    %edx,%esi
 8048a1c:	eb 1f                	jmp    8048a3d <__vprintf+0x109>
 8048a1e:	8d 14 92             	lea    (%edx,%edx,4),%edx
 8048a21:	0f be c0             	movsbl %al,%eax
 8048a24:	8d 54 50 d0          	lea    -0x30(%eax,%edx,2),%edx
 8048a28:	83 c6 01             	add    $0x1,%esi
 8048a2b:	0f b6 06             	movzbl (%esi),%eax
 8048a2e:	0f be c8             	movsbl %al,%ecx
 8048a31:	83 e9 30             	sub    $0x30,%ecx
 8048a34:	83 f9 09             	cmp    $0x9,%ecx
 8048a37:	76 e5                	jbe    8048a1e <__vprintf+0xea>
 8048a39:	89 54 24 44          	mov    %edx,0x44(%esp)
 8048a3d:	8b 44 24 44          	mov    0x44(%esp),%eax
 8048a41:	85 c0                	test   %eax,%eax
 8048a43:	79 0b                	jns    8048a50 <__vprintf+0x11c>
 8048a45:	f7 d8                	neg    %eax
 8048a47:	89 44 24 44          	mov    %eax,0x44(%esp)
 8048a4b:	83 4c 24 40 01       	orl    $0x1,0x40(%esp)
 8048a50:	c7 44 24 48 ff ff ff 	movl   $0xffffffff,0x48(%esp)
 8048a57:	ff 
 8048a58:	80 3e 2e             	cmpb   $0x2e,(%esi)
 8048a5b:	0f 85 f0 04 00 00    	jne    8048f51 <__vprintf+0x61d>
 8048a61:	80 7e 01 2a          	cmpb   $0x2a,0x1(%esi)
 8048a65:	75 0f                	jne    8048a76 <__vprintf+0x142>
 8048a67:	83 c6 02             	add    $0x2,%esi
 8048a6a:	8b 45 00             	mov    0x0(%ebp),%eax
 8048a6d:	89 44 24 48          	mov    %eax,0x48(%esp)
 8048a71:	8d 6d 04             	lea    0x4(%ebp),%ebp
 8048a74:	eb 44                	jmp    8048aba <__vprintf+0x186>
 8048a76:	8d 56 01             	lea    0x1(%esi),%edx
 8048a79:	c7 44 24 48 00 00 00 	movl   $0x0,0x48(%esp)
 8048a80:	00 
 8048a81:	0f b6 46 01          	movzbl 0x1(%esi),%eax
 8048a85:	0f be c8             	movsbl %al,%ecx
 8048a88:	83 e9 30             	sub    $0x30,%ecx
 8048a8b:	83 f9 09             	cmp    $0x9,%ecx
 8048a8e:	0f 87 c6 04 00 00    	ja     8048f5a <__vprintf+0x626>
 8048a94:	b9 00 00 00 00       	mov    $0x0,%ecx
 8048a99:	8d 0c 89             	lea    (%ecx,%ecx,4),%ecx
 8048a9c:	0f be c0             	movsbl %al,%eax
 8048a9f:	8d 4c 48 d0          	lea    -0x30(%eax,%ecx,2),%ecx
 8048aa3:	83 c2 01             	add    $0x1,%edx
 8048aa6:	0f b6 02             	movzbl (%edx),%eax
 8048aa9:	0f be d8             	movsbl %al,%ebx
 8048aac:	83 eb 30             	sub    $0x30,%ebx
 8048aaf:	83 fb 09             	cmp    $0x9,%ebx
 8048ab2:	76 e5                	jbe    8048a99 <__vprintf+0x165>
 8048ab4:	89 4c 24 48          	mov    %ecx,0x48(%esp)
 8048ab8:	89 d6                	mov    %edx,%esi
 8048aba:	83 7c 24 48 00       	cmpl   $0x0,0x48(%esp)
 8048abf:	0f 89 97 04 00 00    	jns    8048f5c <__vprintf+0x628>
 8048ac5:	c7 44 24 48 ff ff ff 	movl   $0xffffffff,0x48(%esp)
 8048acc:	ff 
 8048acd:	e9 7f 04 00 00       	jmp    8048f51 <__vprintf+0x61d>
 8048ad2:	c7 44 24 4c 03 00 00 	movl   $0x3,0x4c(%esp)
 8048ad9:	00 
 8048ada:	8d 5e 01             	lea    0x1(%esi),%ebx
 8048add:	0f b6 3e             	movzbl (%esi),%edi
 8048ae0:	8d 57 98             	lea    -0x68(%edi),%edx
 8048ae3:	80 fa 12             	cmp    $0x12,%dl
 8048ae6:	77 62                	ja     8048b4a <__vprintf+0x216>
 8048ae8:	0f b6 d2             	movzbl %dl,%edx
 8048aeb:	ff 24 95 d0 9d 04 08 	jmp    *0x8049dd0(,%edx,4)
 8048af2:	80 7e 01 68          	cmpb   $0x68,0x1(%esi)
 8048af6:	75 0d                	jne    8048b05 <__vprintf+0x1d1>
 8048af8:	8d 5e 02             	lea    0x2(%esi),%ebx
 8048afb:	c7 44 24 4c 01 00 00 	movl   $0x1,0x4c(%esp)
 8048b02:	00 
 8048b03:	eb 47                	jmp    8048b4c <__vprintf+0x218>
 8048b05:	c7 44 24 4c 02 00 00 	movl   $0x2,0x4c(%esp)
 8048b0c:	00 
 8048b0d:	eb 3d                	jmp    8048b4c <__vprintf+0x218>
 8048b0f:	c7 44 24 4c 04 00 00 	movl   $0x4,0x4c(%esp)
 8048b16:	00 
 8048b17:	eb 33                	jmp    8048b4c <__vprintf+0x218>
 8048b19:	80 7e 01 6c          	cmpb   $0x6c,0x1(%esi)
 8048b1d:	75 0d                	jne    8048b2c <__vprintf+0x1f8>
 8048b1f:	8d 5e 02             	lea    0x2(%esi),%ebx
 8048b22:	c7 44 24 4c 06 00 00 	movl   $0x6,0x4c(%esp)
 8048b29:	00 
 8048b2a:	eb 20                	jmp    8048b4c <__vprintf+0x218>
 8048b2c:	c7 44 24 4c 05 00 00 	movl   $0x5,0x4c(%esp)
 8048b33:	00 
 8048b34:	eb 16                	jmp    8048b4c <__vprintf+0x218>
 8048b36:	c7 44 24 4c 07 00 00 	movl   $0x7,0x4c(%esp)
 8048b3d:	00 
 8048b3e:	eb 0c                	jmp    8048b4c <__vprintf+0x218>
 8048b40:	c7 44 24 4c 08 00 00 	movl   $0x8,0x4c(%esp)
 8048b47:	00 
 8048b48:	eb 02                	jmp    8048b4c <__vprintf+0x218>
 8048b4a:	89 f3                	mov    %esi,%ebx
 8048b4c:	0f b6 0b             	movzbl (%ebx),%ecx
 8048b4f:	8d 51 bb             	lea    -0x45(%ecx),%edx
 8048b52:	80 fa 33             	cmp    $0x33,%dl
 8048b55:	0f 87 c2 03 00 00    	ja     8048f1d <__vprintf+0x5e9>
 8048b5b:	0f b6 d2             	movzbl %dl,%edx
 8048b5e:	ff 24 95 1c 9e 04 08 	jmp    *0x8049e1c(,%edx,4)
 8048b65:	83 7c 24 4c 08       	cmpl   $0x8,0x4c(%esp)
 8048b6a:	0f 87 c9 00 00 00    	ja     8048c39 <__vprintf+0x305>
 8048b70:	8b 44 24 4c          	mov    0x4c(%esp),%eax
 8048b74:	ff 24 85 ec 9e 04 08 	jmp    *0x8049eec(,%eax,4)
 8048b7b:	0f be 75 00          	movsbl 0x0(%ebp),%esi
 8048b7f:	89 f0                	mov    %esi,%eax
 8048b81:	99                   	cltd   
 8048b82:	89 74 24 18          	mov    %esi,0x18(%esp)
 8048b86:	89 54 24 1c          	mov    %edx,0x1c(%esp)
 8048b8a:	8d 6d 04             	lea    0x4(%ebp),%ebp
 8048b8d:	e9 cb 00 00 00       	jmp    8048c5d <__vprintf+0x329>
 8048b92:	0f bf 75 00          	movswl 0x0(%ebp),%esi
 8048b96:	89 f0                	mov    %esi,%eax
 8048b98:	99                   	cltd   
 8048b99:	89 74 24 18          	mov    %esi,0x18(%esp)
 8048b9d:	89 54 24 1c          	mov    %edx,0x1c(%esp)
 8048ba1:	8d 6d 04             	lea    0x4(%ebp),%ebp
 8048ba4:	e9 b4 00 00 00       	jmp    8048c5d <__vprintf+0x329>
 8048ba9:	8b 75 00             	mov    0x0(%ebp),%esi
 8048bac:	89 f0                	mov    %esi,%eax
 8048bae:	99                   	cltd   
 8048baf:	89 74 24 18          	mov    %esi,0x18(%esp)
 8048bb3:	89 54 24 1c          	mov    %edx,0x1c(%esp)
 8048bb7:	8d 6d 04             	lea    0x4(%ebp),%ebp
 8048bba:	e9 9e 00 00 00       	jmp    8048c5d <__vprintf+0x329>
 8048bbf:	8b 45 00             	mov    0x0(%ebp),%eax
 8048bc2:	8b 55 04             	mov    0x4(%ebp),%edx
 8048bc5:	89 44 24 18          	mov    %eax,0x18(%esp)
 8048bc9:	89 54 24 1c          	mov    %edx,0x1c(%esp)
 8048bcd:	8d 6d 08             	lea    0x8(%ebp),%ebp
 8048bd0:	e9 88 00 00 00       	jmp    8048c5d <__vprintf+0x329>
 8048bd5:	8b 75 00             	mov    0x0(%ebp),%esi
 8048bd8:	89 f0                	mov    %esi,%eax
 8048bda:	99                   	cltd   
 8048bdb:	89 74 24 18          	mov    %esi,0x18(%esp)
 8048bdf:	89 54 24 1c          	mov    %edx,0x1c(%esp)
 8048be3:	8d 6d 04             	lea    0x4(%ebp),%ebp
 8048be6:	eb 75                	jmp    8048c5d <__vprintf+0x329>
 8048be8:	8b 45 00             	mov    0x0(%ebp),%eax
 8048beb:	8b 55 04             	mov    0x4(%ebp),%edx
 8048bee:	89 44 24 18          	mov    %eax,0x18(%esp)
 8048bf2:	89 54 24 1c          	mov    %edx,0x1c(%esp)
 8048bf6:	8d 6d 08             	lea    0x8(%ebp),%ebp
 8048bf9:	eb 62                	jmp    8048c5d <__vprintf+0x329>
 8048bfb:	8b 75 00             	mov    0x0(%ebp),%esi
 8048bfe:	89 f0                	mov    %esi,%eax
 8048c00:	99                   	cltd   
 8048c01:	89 74 24 18          	mov    %esi,0x18(%esp)
 8048c05:	89 54 24 1c          	mov    %edx,0x1c(%esp)
 8048c09:	8d 6d 04             	lea    0x4(%ebp),%ebp
 8048c0c:	eb 4f                	jmp    8048c5d <__vprintf+0x329>
 8048c0e:	8d 45 04             	lea    0x4(%ebp),%eax
 8048c11:	8b 7d 00             	mov    0x0(%ebp),%edi
 8048c14:	bd 00 00 00 00       	mov    $0x0,%ebp
 8048c19:	89 fe                	mov    %edi,%esi
 8048c1b:	89 74 24 18          	mov    %esi,0x18(%esp)
 8048c1f:	89 6c 24 1c          	mov    %ebp,0x1c(%esp)
 8048c23:	89 c5                	mov    %eax,%ebp
 8048c25:	81 fe ff ff ff 7f    	cmp    $0x7fffffff,%esi
 8048c2b:	76 30                	jbe    8048c5d <__vprintf+0x329>
 8048c2d:	83 44 24 18 00       	addl   $0x0,0x18(%esp)
 8048c32:	83 54 24 1c ff       	adcl   $0xffffffff,0x1c(%esp)
 8048c37:	eb 24                	jmp    8048c5d <__vprintf+0x329>
 8048c39:	c7 44 24 0c b4 a1 04 	movl   $0x804a1b4,0xc(%esp)
 8048c40:	08 
 8048c41:	c7 44 24 08 34 9f 04 	movl   $0x8049f34,0x8(%esp)
 8048c48:	08 
 8048c49:	c7 44 24 04 dc 00 00 	movl   $0xdc,0x4(%esp)
 8048c50:	00 
 8048c51:	c7 04 24 09 a0 04 08 	movl   $0x804a009,(%esp)
 8048c58:	e8 57 f6 ff ff       	call   80482b4 <debug_panic>
 8048c5d:	8b 54 24 1c          	mov    0x1c(%esp),%edx
 8048c61:	c1 fa 1f             	sar    $0x1f,%edx
 8048c64:	89 d7                	mov    %edx,%edi
 8048c66:	33 7c 24 18          	xor    0x18(%esp),%edi
 8048c6a:	89 7c 24 20          	mov    %edi,0x20(%esp)
 8048c6e:	89 d7                	mov    %edx,%edi
 8048c70:	33 7c 24 1c          	xor    0x1c(%esp),%edi
 8048c74:	89 7c 24 24          	mov    %edi,0x24(%esp)
 8048c78:	8b 74 24 20          	mov    0x20(%esp),%esi
 8048c7c:	8b 7c 24 24          	mov    0x24(%esp),%edi
 8048c80:	29 d6                	sub    %edx,%esi
 8048c82:	19 d7                	sbb    %edx,%edi
 8048c84:	89 f0                	mov    %esi,%eax
 8048c86:	89 fa                	mov    %edi,%edx
 8048c88:	8b 7c 24 7c          	mov    0x7c(%esp),%edi
 8048c8c:	89 7c 24 10          	mov    %edi,0x10(%esp)
 8048c90:	8b 7c 24 78          	mov    0x78(%esp),%edi
 8048c94:	89 7c 24 0c          	mov    %edi,0xc(%esp)
 8048c98:	8d 7c 24 40          	lea    0x40(%esp),%edi
 8048c9c:	89 7c 24 08          	mov    %edi,0x8(%esp)
 8048ca0:	c7 44 24 04 70 9f 04 	movl   $0x8049f70,0x4(%esp)
 8048ca7:	08 
 8048ca8:	8b 4c 24 1c          	mov    0x1c(%esp),%ecx
 8048cac:	c1 e9 1f             	shr    $0x1f,%ecx
 8048caf:	89 0c 24             	mov    %ecx,(%esp)
 8048cb2:	b9 01 00 00 00       	mov    $0x1,%ecx
 8048cb7:	e8 82 f8 ff ff       	call   804853e <format_integer>
 8048cbc:	e9 7f 02 00 00       	jmp    8048f40 <__vprintf+0x60c>
 8048cc1:	83 7c 24 4c 08       	cmpl   $0x8,0x4c(%esp)
 8048cc6:	0f 87 b7 00 00 00    	ja     8048d83 <__vprintf+0x44f>
 8048ccc:	8b 44 24 4c          	mov    0x4c(%esp),%eax
 8048cd0:	ff 24 85 10 9f 04 08 	jmp    *0x8049f10(,%eax,4)
 8048cd7:	0f b6 45 00          	movzbl 0x0(%ebp),%eax
 8048cdb:	89 44 24 28          	mov    %eax,0x28(%esp)
 8048cdf:	c7 44 24 2c 00 00 00 	movl   $0x0,0x2c(%esp)
 8048ce6:	00 
 8048ce7:	8d 6d 04             	lea    0x4(%ebp),%ebp
 8048cea:	e9 b8 00 00 00       	jmp    8048da7 <__vprintf+0x473>
 8048cef:	0f b7 45 00          	movzwl 0x0(%ebp),%eax
 8048cf3:	89 44 24 28          	mov    %eax,0x28(%esp)
 8048cf7:	c7 44 24 2c 00 00 00 	movl   $0x0,0x2c(%esp)
 8048cfe:	00 
 8048cff:	8d 6d 04             	lea    0x4(%ebp),%ebp
 8048d02:	e9 a0 00 00 00       	jmp    8048da7 <__vprintf+0x473>
 8048d07:	8b 45 00             	mov    0x0(%ebp),%eax
 8048d0a:	ba 00 00 00 00       	mov    $0x0,%edx
 8048d0f:	89 44 24 28          	mov    %eax,0x28(%esp)
 8048d13:	89 54 24 2c          	mov    %edx,0x2c(%esp)
 8048d17:	8d 6d 04             	lea    0x4(%ebp),%ebp
 8048d1a:	e9 88 00 00 00       	jmp    8048da7 <__vprintf+0x473>
 8048d1f:	8b 45 00             	mov    0x0(%ebp),%eax
 8048d22:	8b 55 04             	mov    0x4(%ebp),%edx
 8048d25:	89 44 24 28          	mov    %eax,0x28(%esp)
 8048d29:	89 54 24 2c          	mov    %edx,0x2c(%esp)
 8048d2d:	8d 6d 08             	lea    0x8(%ebp),%ebp
 8048d30:	eb 75                	jmp    8048da7 <__vprintf+0x473>
 8048d32:	8b 45 00             	mov    0x0(%ebp),%eax
 8048d35:	ba 00 00 00 00       	mov    $0x0,%edx
 8048d3a:	89 44 24 28          	mov    %eax,0x28(%esp)
 8048d3e:	89 54 24 2c          	mov    %edx,0x2c(%esp)
 8048d42:	8d 6d 04             	lea    0x4(%ebp),%ebp
 8048d45:	eb 60                	jmp    8048da7 <__vprintf+0x473>
 8048d47:	8b 45 00             	mov    0x0(%ebp),%eax
 8048d4a:	8b 55 04             	mov    0x4(%ebp),%edx
 8048d4d:	89 44 24 28          	mov    %eax,0x28(%esp)
 8048d51:	89 54 24 2c          	mov    %edx,0x2c(%esp)
 8048d55:	8d 6d 08             	lea    0x8(%ebp),%ebp
 8048d58:	eb 4d                	jmp    8048da7 <__vprintf+0x473>
 8048d5a:	8b 45 00             	mov    0x0(%ebp),%eax
 8048d5d:	89 44 24 28          	mov    %eax,0x28(%esp)
 8048d61:	c7 44 24 2c 00 00 00 	movl   $0x0,0x2c(%esp)
 8048d68:	00 
 8048d69:	8d 6d 04             	lea    0x4(%ebp),%ebp
 8048d6c:	eb 39                	jmp    8048da7 <__vprintf+0x473>
 8048d6e:	8b 45 00             	mov    0x0(%ebp),%eax
 8048d71:	ba 00 00 00 00       	mov    $0x0,%edx
 8048d76:	89 44 24 28          	mov    %eax,0x28(%esp)
 8048d7a:	89 54 24 2c          	mov    %edx,0x2c(%esp)
 8048d7e:	8d 6d 04             	lea    0x4(%ebp),%ebp
 8048d81:	eb 24                	jmp    8048da7 <__vprintf+0x473>
 8048d83:	c7 44 24 0c b4 a1 04 	movl   $0x804a1b4,0xc(%esp)
 8048d8a:	08 
 8048d8b:	c7 44 24 08 34 9f 04 	movl   $0x8049f34,0x8(%esp)
 8048d92:	08 
 8048d93:	c7 44 24 04 0b 01 00 	movl   $0x10b,0x4(%esp)
 8048d9a:	00 
 8048d9b:	c7 04 24 09 a0 04 08 	movl   $0x804a009,(%esp)
 8048da2:	e8 0d f5 ff ff       	call   80482b4 <debug_panic>
 8048da7:	80 f9 6f             	cmp    $0x6f,%cl
 8048daa:	74 4d                	je     8048df9 <__vprintf+0x4c5>
 8048dac:	80 f9 6f             	cmp    $0x6f,%cl
 8048daf:	7f 07                	jg     8048db8 <__vprintf+0x484>
 8048db1:	80 f9 58             	cmp    $0x58,%cl
 8048db4:	74 18                	je     8048dce <__vprintf+0x49a>
 8048db6:	eb 1d                	jmp    8048dd5 <__vprintf+0x4a1>
 8048db8:	80 f9 75             	cmp    $0x75,%cl
 8048dbb:	90                   	nop
 8048dbc:	8d 74 26 00          	lea    0x0(%esi,%eiz,1),%esi
 8048dc0:	74 3e                	je     8048e00 <__vprintf+0x4cc>
 8048dc2:	80 f9 78             	cmp    $0x78,%cl
 8048dc5:	75 0e                	jne    8048dd5 <__vprintf+0x4a1>
 8048dc7:	b8 50 9f 04 08       	mov    $0x8049f50,%eax
 8048dcc:	eb 37                	jmp    8048e05 <__vprintf+0x4d1>
 8048dce:	b8 40 9f 04 08       	mov    $0x8049f40,%eax
 8048dd3:	eb 30                	jmp    8048e05 <__vprintf+0x4d1>
 8048dd5:	c7 44 24 0c b4 a1 04 	movl   $0x804a1b4,0xc(%esp)
 8048ddc:	08 
 8048ddd:	c7 44 24 08 34 9f 04 	movl   $0x8049f34,0x8(%esp)
 8048de4:	08 
 8048de5:	c7 44 24 04 14 01 00 	movl   $0x114,0x4(%esp)
 8048dec:	00 
 8048ded:	c7 04 24 09 a0 04 08 	movl   $0x804a009,(%esp)
 8048df4:	e8 bb f4 ff ff       	call   80482b4 <debug_panic>
 8048df9:	b8 60 9f 04 08       	mov    $0x8049f60,%eax
 8048dfe:	eb 05                	jmp    8048e05 <__vprintf+0x4d1>
 8048e00:	b8 70 9f 04 08       	mov    $0x8049f70,%eax
 8048e05:	8b 7c 24 7c          	mov    0x7c(%esp),%edi
 8048e09:	89 7c 24 10          	mov    %edi,0x10(%esp)
 8048e0d:	8b 7c 24 78          	mov    0x78(%esp),%edi
 8048e11:	89 7c 24 0c          	mov    %edi,0xc(%esp)
 8048e15:	8d 7c 24 40          	lea    0x40(%esp),%edi
 8048e19:	89 7c 24 08          	mov    %edi,0x8(%esp)
 8048e1d:	89 44 24 04          	mov    %eax,0x4(%esp)
 8048e21:	c7 04 24 00 00 00 00 	movl   $0x0,(%esp)
 8048e28:	b9 00 00 00 00       	mov    $0x0,%ecx
 8048e2d:	8b 44 24 28          	mov    0x28(%esp),%eax
 8048e31:	8b 54 24 2c          	mov    0x2c(%esp),%edx
 8048e35:	e8 04 f7 ff ff       	call   804853e <format_integer>
 8048e3a:	e9 01 01 00 00       	jmp    8048f40 <__vprintf+0x60c>
 8048e3f:	8d 75 04             	lea    0x4(%ebp),%esi
 8048e42:	8b 45 00             	mov    0x0(%ebp),%eax
 8048e45:	88 44 24 3f          	mov    %al,0x3f(%esp)
 8048e49:	8b 44 24 7c          	mov    0x7c(%esp),%eax
 8048e4d:	89 44 24 04          	mov    %eax,0x4(%esp)
 8048e51:	8b 44 24 78          	mov    0x78(%esp),%eax
 8048e55:	89 04 24             	mov    %eax,(%esp)
 8048e58:	8d 4c 24 40          	lea    0x40(%esp),%ecx
 8048e5c:	ba 01 00 00 00       	mov    $0x1,%edx
 8048e61:	8d 44 24 3f          	lea    0x3f(%esp),%eax
 8048e65:	e8 00 fa ff ff       	call   804886a <format_string>
 8048e6a:	89 f5                	mov    %esi,%ebp
 8048e6c:	e9 cf 00 00 00       	jmp    8048f40 <__vprintf+0x60c>
 8048e71:	8d 75 04             	lea    0x4(%ebp),%esi
 8048e74:	8b 7d 00             	mov    0x0(%ebp),%edi
 8048e77:	85 ff                	test   %edi,%edi
 8048e79:	ba 02 a0 04 08       	mov    $0x804a002,%edx
 8048e7e:	0f 44 fa             	cmove  %edx,%edi
 8048e81:	89 44 24 04          	mov    %eax,0x4(%esp)
 8048e85:	89 3c 24             	mov    %edi,(%esp)
 8048e88:	e8 cd 0a 00 00       	call   804995a <strnlen>
 8048e8d:	8b 4c 24 7c          	mov    0x7c(%esp),%ecx
 8048e91:	89 4c 24 04          	mov    %ecx,0x4(%esp)
 8048e95:	8b 4c 24 78          	mov    0x78(%esp),%ecx
 8048e99:	89 0c 24             	mov    %ecx,(%esp)
 8048e9c:	8d 4c 24 40          	lea    0x40(%esp),%ecx
 8048ea0:	89 c2                	mov    %eax,%edx
 8048ea2:	89 f8                	mov    %edi,%eax
 8048ea4:	e8 c1 f9 ff ff       	call   804886a <format_string>
 8048ea9:	89 f5                	mov    %esi,%ebp
 8048eab:	e9 90 00 00 00       	jmp    8048f40 <__vprintf+0x60c>
 8048eb0:	8d 75 04             	lea    0x4(%ebp),%esi
 8048eb3:	8b 45 00             	mov    0x0(%ebp),%eax
 8048eb6:	c7 44 24 40 08 00 00 	movl   $0x8,0x40(%esp)
 8048ebd:	00 
 8048ebe:	ba 00 00 00 00       	mov    $0x0,%edx
 8048ec3:	8b 7c 24 7c          	mov    0x7c(%esp),%edi
 8048ec7:	89 7c 24 10          	mov    %edi,0x10(%esp)
 8048ecb:	8b 7c 24 78          	mov    0x78(%esp),%edi
 8048ecf:	89 7c 24 0c          	mov    %edi,0xc(%esp)
 8048ed3:	8d 7c 24 40          	lea    0x40(%esp),%edi
 8048ed7:	89 7c 24 08          	mov    %edi,0x8(%esp)
 8048edb:	c7 44 24 04 50 9f 04 	movl   $0x8049f50,0x4(%esp)
 8048ee2:	08 
 8048ee3:	c7 04 24 00 00 00 00 	movl   $0x0,(%esp)
 8048eea:	b9 00 00 00 00       	mov    $0x0,%ecx
 8048eef:	e8 4a f6 ff ff       	call   804853e <format_integer>
 8048ef4:	89 f5                	mov    %esi,%ebp
 8048ef6:	eb 48                	jmp    8048f40 <__vprintf+0x60c>
 8048ef8:	0f be c9             	movsbl %cl,%ecx
 8048efb:	89 4c 24 0c          	mov    %ecx,0xc(%esp)
 8048eff:	8b 44 24 7c          	mov    0x7c(%esp),%eax
 8048f03:	89 44 24 08          	mov    %eax,0x8(%esp)
 8048f07:	8b 44 24 78          	mov    0x78(%esp),%eax
 8048f0b:	89 44 24 04          	mov    %eax,0x4(%esp)
 8048f0f:	c7 04 24 18 a0 04 08 	movl   $0x804a018,(%esp)
 8048f16:	e8 ee f9 ff ff       	call   8048909 <__printf>
 8048f1b:	eb 23                	jmp    8048f40 <__vprintf+0x60c>
 8048f1d:	0f be c9             	movsbl %cl,%ecx
 8048f20:	89 4c 24 0c          	mov    %ecx,0xc(%esp)
 8048f24:	8b 44 24 7c          	mov    0x7c(%esp),%eax
 8048f28:	89 44 24 08          	mov    %eax,0x8(%esp)
 8048f2c:	8b 44 24 78          	mov    0x78(%esp),%eax
 8048f30:	89 44 24 04          	mov    %eax,0x4(%esp)
 8048f34:	c7 04 24 2e a0 04 08 	movl   $0x804a02e,(%esp)
 8048f3b:	e8 c9 f9 ff ff       	call   8048909 <__printf>
 8048f40:	8d 7b 01             	lea    0x1(%ebx),%edi
 8048f43:	0f b6 43 01          	movzbl 0x1(%ebx),%eax
 8048f47:	84 c0                	test   %al,%al
 8048f49:	0f 85 ff f9 ff ff    	jne    804894e <__vprintf+0x1a>
 8048f4f:	eb 19                	jmp    8048f6a <__vprintf+0x636>
 8048f51:	8b 44 24 48          	mov    0x48(%esp),%eax
 8048f55:	e9 78 fb ff ff       	jmp    8048ad2 <__vprintf+0x19e>
 8048f5a:	89 d6                	mov    %edx,%esi
 8048f5c:	8b 44 24 48          	mov    0x48(%esp),%eax
 8048f60:	83 64 24 40 ef       	andl   $0xffffffef,0x40(%esp)
 8048f65:	e9 68 fb ff ff       	jmp    8048ad2 <__vprintf+0x19e>
 8048f6a:	83 c4 5c             	add    $0x5c,%esp
 8048f6d:	5b                   	pop    %ebx
 8048f6e:	5e                   	pop    %esi
 8048f6f:	5f                   	pop    %edi
 8048f70:	5d                   	pop    %ebp
 8048f71:	c3                   	ret    

08048f72 <vsnprintf>:
 8048f72:	53                   	push   %ebx
 8048f73:	83 ec 28             	sub    $0x28,%esp
 8048f76:	8b 44 24 34          	mov    0x34(%esp),%eax
 8048f7a:	8b 54 24 38          	mov    0x38(%esp),%edx
 8048f7e:	8b 4c 24 3c          	mov    0x3c(%esp),%ecx
 8048f82:	8b 5c 24 30          	mov    0x30(%esp),%ebx
 8048f86:	89 5c 24 14          	mov    %ebx,0x14(%esp)
 8048f8a:	c7 44 24 18 00 00 00 	movl   $0x0,0x18(%esp)
 8048f91:	00 
 8048f92:	85 c0                	test   %eax,%eax
 8048f94:	74 2c                	je     8048fc2 <vsnprintf+0x50>
 8048f96:	83 e8 01             	sub    $0x1,%eax
 8048f99:	89 44 24 1c          	mov    %eax,0x1c(%esp)
 8048f9d:	8d 44 24 14          	lea    0x14(%esp),%eax
 8048fa1:	89 44 24 0c          	mov    %eax,0xc(%esp)
 8048fa5:	c7 44 24 08 f0 84 04 	movl   $0x80484f0,0x8(%esp)
 8048fac:	08 
 8048fad:	89 4c 24 04          	mov    %ecx,0x4(%esp)
 8048fb1:	89 14 24             	mov    %edx,(%esp)
 8048fb4:	e8 7b f9 ff ff       	call   8048934 <__vprintf>
 8048fb9:	8b 44 24 14          	mov    0x14(%esp),%eax
 8048fbd:	c6 00 00             	movb   $0x0,(%eax)
 8048fc0:	eb 24                	jmp    8048fe6 <vsnprintf+0x74>
 8048fc2:	c7 44 24 1c 00 00 00 	movl   $0x0,0x1c(%esp)
 8048fc9:	00 
 8048fca:	8d 44 24 14          	lea    0x14(%esp),%eax
 8048fce:	89 44 24 0c          	mov    %eax,0xc(%esp)
 8048fd2:	c7 44 24 08 f0 84 04 	movl   $0x80484f0,0x8(%esp)
 8048fd9:	08 
 8048fda:	89 4c 24 04          	mov    %ecx,0x4(%esp)
 8048fde:	89 14 24             	mov    %edx,(%esp)
 8048fe1:	e8 4e f9 ff ff       	call   8048934 <__vprintf>
 8048fe6:	8b 44 24 18          	mov    0x18(%esp),%eax
 8048fea:	83 c4 28             	add    $0x28,%esp
 8048fed:	5b                   	pop    %ebx
 8048fee:	c3                   	ret    

08048fef <snprintf>:
 8048fef:	83 ec 1c             	sub    $0x1c,%esp
 8048ff2:	8d 44 24 2c          	lea    0x2c(%esp),%eax
 8048ff6:	89 44 24 0c          	mov    %eax,0xc(%esp)
 8048ffa:	8b 44 24 28          	mov    0x28(%esp),%eax
 8048ffe:	89 44 24 08          	mov    %eax,0x8(%esp)
 8049002:	8b 44 24 24          	mov    0x24(%esp),%eax
 8049006:	89 44 24 04          	mov    %eax,0x4(%esp)
 804900a:	8b 44 24 20          	mov    0x20(%esp),%eax
 804900e:	89 04 24             	mov    %eax,(%esp)
 8049011:	e8 5c ff ff ff       	call   8048f72 <vsnprintf>
 8049016:	83 c4 1c             	add    $0x1c,%esp
 8049019:	c3                   	ret    

0804901a <hex_dump>:
 804901a:	55                   	push   %ebp
 804901b:	57                   	push   %edi
 804901c:	56                   	push   %esi
 804901d:	53                   	push   %ebx
 804901e:	83 ec 2c             	sub    $0x2c,%esp
 8049021:	0f b6 44 24 4c       	movzbl 0x4c(%esp),%eax
 8049026:	88 44 24 1f          	mov    %al,0x1f(%esp)
 804902a:	83 7c 24 48 00       	cmpl   $0x0,0x48(%esp)
 804902f:	0f 84 7c 01 00 00    	je     80491b1 <hex_dump+0x197>
 8049035:	8b 7c 24 40          	mov    0x40(%esp),%edi
 8049039:	83 e7 0f             	and    $0xf,%edi
 804903c:	b8 10 00 00 00       	mov    $0x10,%eax
 8049041:	29 f8                	sub    %edi,%eax
 8049043:	89 fe                	mov    %edi,%esi
 8049045:	03 74 24 48          	add    0x48(%esp),%esi
 8049049:	3b 44 24 48          	cmp    0x48(%esp),%eax
 804904d:	b8 10 00 00 00       	mov    $0x10,%eax
 8049052:	0f 46 f0             	cmovbe %eax,%esi
 8049055:	89 f0                	mov    %esi,%eax
 8049057:	29 f8                	sub    %edi,%eax
 8049059:	89 44 24 18          	mov    %eax,0x18(%esp)
 804905d:	8b 44 24 40          	mov    0x40(%esp),%eax
 8049061:	83 e0 f0             	and    $0xfffffff0,%eax
 8049064:	89 44 24 04          	mov    %eax,0x4(%esp)
 8049068:	c7 44 24 08 00 00 00 	movl   $0x0,0x8(%esp)
 804906f:	00 
 8049070:	c7 04 24 45 a0 04 08 	movl   $0x804a045,(%esp)
 8049077:	e8 72 f8 ff ff       	call   80488ee <printf>
 804907c:	85 ff                	test   %edi,%edi
 804907e:	74 1a                	je     804909a <hex_dump+0x80>
 8049080:	bb 00 00 00 00       	mov    $0x0,%ebx
 8049085:	c7 04 24 4d a0 04 08 	movl   $0x804a04d,(%esp)
 804908c:	e8 5d f8 ff ff       	call   80488ee <printf>
 8049091:	83 c3 01             	add    $0x1,%ebx
 8049094:	39 fb                	cmp    %edi,%ebx
 8049096:	75 ed                	jne    8049085 <hex_dump+0x6b>
 8049098:	eb 08                	jmp    80490a2 <hex_dump+0x88>
 804909a:	89 fb                	mov    %edi,%ebx
 804909c:	8d 74 26 00          	lea    0x0(%esi,%eiz,1),%esi
 80490a0:	eb 02                	jmp    80490a4 <hex_dump+0x8a>
 80490a2:	89 fb                	mov    %edi,%ebx
 80490a4:	39 de                	cmp    %ebx,%esi
 80490a6:	76 38                	jbe    80490e0 <hex_dump+0xc6>
 80490a8:	8b 6c 24 44          	mov    0x44(%esp),%ebp
 80490ac:	29 fd                	sub    %edi,%ebp
 80490ae:	83 fb 07             	cmp    $0x7,%ebx
 80490b1:	b8 2d 00 00 00       	mov    $0x2d,%eax
 80490b6:	b9 20 00 00 00       	mov    $0x20,%ecx
 80490bb:	0f 45 c1             	cmovne %ecx,%eax
 80490be:	89 44 24 08          	mov    %eax,0x8(%esp)
 80490c2:	0f b6 44 1d 00       	movzbl 0x0(%ebp,%ebx,1),%eax
 80490c7:	89 44 24 04          	mov    %eax,0x4(%esp)
 80490cb:	c7 04 24 51 a0 04 08 	movl   $0x804a051,(%esp)
 80490d2:	e8 17 f8 ff ff       	call   80488ee <printf>
 80490d7:	83 c3 01             	add    $0x1,%ebx
 80490da:	39 de                	cmp    %ebx,%esi
 80490dc:	77 d0                	ja     80490ae <hex_dump+0x94>
 80490de:	89 f3                	mov    %esi,%ebx
 80490e0:	80 7c 24 1f 00       	cmpb   $0x0,0x1f(%esp)
 80490e5:	0f 84 a4 00 00 00    	je     804918f <hex_dump+0x175>
 80490eb:	83 fb 0f             	cmp    $0xf,%ebx
 80490ee:	77 14                	ja     8049104 <hex_dump+0xea>
 80490f0:	c7 04 24 4d a0 04 08 	movl   $0x804a04d,(%esp)
 80490f7:	e8 f2 f7 ff ff       	call   80488ee <printf>
 80490fc:	83 c3 01             	add    $0x1,%ebx
 80490ff:	83 fb 10             	cmp    $0x10,%ebx
 8049102:	75 ec                	jne    80490f0 <hex_dump+0xd6>
 8049104:	c7 04 24 7c 00 00 00 	movl   $0x7c,(%esp)
 804910b:	e8 55 f2 ff ff       	call   8048365 <putchar>
 8049110:	85 ff                	test   %edi,%edi
 8049112:	74 1a                	je     804912e <hex_dump+0x114>
 8049114:	bb 00 00 00 00       	mov    $0x0,%ebx
 8049119:	c7 04 24 20 00 00 00 	movl   $0x20,(%esp)
 8049120:	e8 40 f2 ff ff       	call   8048365 <putchar>
 8049125:	83 c3 01             	add    $0x1,%ebx
 8049128:	39 fb                	cmp    %edi,%ebx
 804912a:	75 ed                	jne    8049119 <hex_dump+0xff>
 804912c:	eb 04                	jmp    8049132 <hex_dump+0x118>
 804912e:	89 fb                	mov    %edi,%ebx
 8049130:	eb 02                	jmp    8049134 <hex_dump+0x11a>
 8049132:	89 fb                	mov    %edi,%ebx
 8049134:	39 de                	cmp    %ebx,%esi
 8049136:	76 30                	jbe    8049168 <hex_dump+0x14e>
 8049138:	8b 6c 24 44          	mov    0x44(%esp),%ebp
 804913c:	29 fd                	sub    %edi,%ebp
 804913e:	bf 2e 00 00 00       	mov    $0x2e,%edi
 8049143:	0f b6 54 1d 00       	movzbl 0x0(%ebp,%ebx,1),%edx
 8049148:	0f b6 c2             	movzbl %dl,%eax
 804914b:	8d 40 e0             	lea    -0x20(%eax),%eax
 804914e:	0f b6 d2             	movzbl %dl,%edx
 8049151:	83 f8 5e             	cmp    $0x5e,%eax
 8049154:	0f 47 d7             	cmova  %edi,%edx
 8049157:	89 14 24             	mov    %edx,(%esp)
 804915a:	e8 06 f2 ff ff       	call   8048365 <putchar>
 804915f:	83 c3 01             	add    $0x1,%ebx
 8049162:	39 de                	cmp    %ebx,%esi
 8049164:	77 dd                	ja     8049143 <hex_dump+0x129>
 8049166:	eb 02                	jmp    804916a <hex_dump+0x150>
 8049168:	89 de                	mov    %ebx,%esi
 804916a:	83 fe 0f             	cmp    $0xf,%esi
 804916d:	77 14                	ja     8049183 <hex_dump+0x169>
 804916f:	c7 04 24 20 00 00 00 	movl   $0x20,(%esp)
 8049176:	e8 ea f1 ff ff       	call   8048365 <putchar>
 804917b:	83 c6 01             	add    $0x1,%esi
 804917e:	83 fe 10             	cmp    $0x10,%esi
 8049181:	75 ec                	jne    804916f <hex_dump+0x155>
 8049183:	c7 04 24 7c 00 00 00 	movl   $0x7c,(%esp)
 804918a:	e8 d6 f1 ff ff       	call   8048365 <putchar>
 804918f:	c7 04 24 0a 00 00 00 	movl   $0xa,(%esp)
 8049196:	e8 ca f1 ff ff       	call   8048365 <putchar>
 804919b:	8b 44 24 18          	mov    0x18(%esp),%eax
 804919f:	01 44 24 40          	add    %eax,0x40(%esp)
 80491a3:	01 44 24 44          	add    %eax,0x44(%esp)
 80491a7:	29 44 24 48          	sub    %eax,0x48(%esp)
 80491ab:	0f 85 84 fe ff ff    	jne    8049035 <hex_dump+0x1b>
 80491b1:	83 c4 2c             	add    $0x2c,%esp
 80491b4:	5b                   	pop    %ebx
 80491b5:	5e                   	pop    %esi
 80491b6:	5f                   	pop    %edi
 80491b7:	5d                   	pop    %ebp
 80491b8:	c3                   	ret    

080491b9 <print_human_readable_size>:
 80491b9:	56                   	push   %esi
 80491ba:	53                   	push   %ebx
 80491bb:	83 ec 14             	sub    $0x14,%esp
 80491be:	8b 4c 24 20          	mov    0x20(%esp),%ecx
 80491c2:	8b 5c 24 24          	mov    0x24(%esp),%ebx
 80491c6:	89 c8                	mov    %ecx,%eax
 80491c8:	83 f0 01             	xor    $0x1,%eax
 80491cb:	09 d8                	or     %ebx,%eax
 80491cd:	74 22                	je     80491f1 <print_human_readable_size+0x38>
 80491cf:	83 fb 00             	cmp    $0x0,%ebx
 80491d2:	77 0d                	ja     80491e1 <print_human_readable_size+0x28>
 80491d4:	be 9c b2 04 08       	mov    $0x804b29c,%esi
 80491d9:	81 f9 ff 03 00 00    	cmp    $0x3ff,%ecx
 80491df:	76 42                	jbe    8049223 <print_human_readable_size+0x6a>
 80491e1:	be 9c b2 04 08       	mov    $0x804b29c,%esi
 80491e6:	83 3d a0 b2 04 08 00 	cmpl   $0x0,0x804b2a0
 80491ed:	75 10                	jne    80491ff <print_human_readable_size+0x46>
 80491ef:	eb 32                	jmp    8049223 <print_human_readable_size+0x6a>
 80491f1:	c7 04 24 5a a0 04 08 	movl   $0x804a05a,(%esp)
 80491f8:	e8 f1 f6 ff ff       	call   80488ee <printf>
 80491fd:	eb 3e                	jmp    804923d <print_human_readable_size+0x84>
 80491ff:	89 c8                	mov    %ecx,%eax
 8049201:	89 da                	mov    %ebx,%edx
 8049203:	0f ac d8 0a          	shrd   $0xa,%ebx,%eax
 8049207:	c1 ea 0a             	shr    $0xa,%edx
 804920a:	89 c1                	mov    %eax,%ecx
 804920c:	89 d3                	mov    %edx,%ebx
 804920e:	83 c6 04             	add    $0x4,%esi
 8049211:	83 fa 00             	cmp    $0x0,%edx
 8049214:	77 07                	ja     804921d <print_human_readable_size+0x64>
 8049216:	3d ff 03 00 00       	cmp    $0x3ff,%eax
 804921b:	76 06                	jbe    8049223 <print_human_readable_size+0x6a>
 804921d:	83 7e 04 00          	cmpl   $0x0,0x4(%esi)
 8049221:	75 dc                	jne    80491ff <print_human_readable_size+0x46>
 8049223:	8b 06                	mov    (%esi),%eax
 8049225:	89 44 24 0c          	mov    %eax,0xc(%esp)
 8049229:	89 4c 24 04          	mov    %ecx,0x4(%esp)
 804922d:	89 5c 24 08          	mov    %ebx,0x8(%esp)
 8049231:	c7 04 24 61 a0 04 08 	movl   $0x804a061,(%esp)
 8049238:	e8 b1 f6 ff ff       	call   80488ee <printf>
 804923d:	83 c4 14             	add    $0x14,%esp
 8049240:	5b                   	pop    %ebx
 8049241:	5e                   	pop    %esi
 8049242:	c3                   	ret    
 8049243:	90                   	nop
 8049244:	90                   	nop
 8049245:	90                   	nop
 8049246:	90                   	nop
 8049247:	90                   	nop
 8049248:	90                   	nop
 8049249:	90                   	nop
 804924a:	90                   	nop
 804924b:	90                   	nop
 804924c:	90                   	nop
 804924d:	90                   	nop
 804924e:	90                   	nop
 804924f:	90                   	nop

08049250 <memcpy>:
 8049250:	56                   	push   %esi
 8049251:	53                   	push   %ebx
 8049252:	83 ec 24             	sub    $0x24,%esp
 8049255:	8b 44 24 30          	mov    0x30(%esp),%eax
 8049259:	8b 74 24 34          	mov    0x34(%esp),%esi
 804925d:	8b 5c 24 38          	mov    0x38(%esp),%ebx
 8049261:	85 db                	test   %ebx,%ebx
 8049263:	0f 94 c2             	sete   %dl
 8049266:	85 c0                	test   %eax,%eax
 8049268:	75 30                	jne    804929a <memcpy+0x4a>
 804926a:	84 d2                	test   %dl,%dl
 804926c:	75 2c                	jne    804929a <memcpy+0x4a>
 804926e:	c7 44 24 10 b1 a0 04 	movl   $0x804a0b1,0x10(%esp)
 8049275:	08 
 8049276:	c7 44 24 0c ca a0 04 	movl   $0x804a0ca,0xc(%esp)
 804927d:	08 
 804927e:	c7 44 24 08 cb 9f 04 	movl   $0x8049fcb,0x8(%esp)
 8049285:	08 
 8049286:	c7 44 24 04 0c 00 00 	movl   $0xc,0x4(%esp)
 804928d:	00 
 804928e:	c7 04 24 e1 a0 04 08 	movl   $0x804a0e1,(%esp)
 8049295:	e8 1a f0 ff ff       	call   80482b4 <debug_panic>
 804929a:	85 f6                	test   %esi,%esi
 804929c:	75 04                	jne    80492a2 <memcpy+0x52>
 804929e:	84 d2                	test   %dl,%dl
 80492a0:	74 0b                	je     80492ad <memcpy+0x5d>
 80492a2:	ba 00 00 00 00       	mov    $0x0,%edx
 80492a7:	85 db                	test   %ebx,%ebx
 80492a9:	75 2e                	jne    80492d9 <memcpy+0x89>
 80492ab:	eb 3a                	jmp    80492e7 <memcpy+0x97>
 80492ad:	c7 44 24 10 f1 a0 04 	movl   $0x804a0f1,0x10(%esp)
 80492b4:	08 
 80492b5:	c7 44 24 0c ca a0 04 	movl   $0x804a0ca,0xc(%esp)
 80492bc:	08 
 80492bd:	c7 44 24 08 cb 9f 04 	movl   $0x8049fcb,0x8(%esp)
 80492c4:	08 
 80492c5:	c7 44 24 04 0d 00 00 	movl   $0xd,0x4(%esp)
 80492cc:	00 
 80492cd:	c7 04 24 e1 a0 04 08 	movl   $0x804a0e1,(%esp)
 80492d4:	e8 db ef ff ff       	call   80482b4 <debug_panic>
 80492d9:	0f b6 0c 16          	movzbl (%esi,%edx,1),%ecx
 80492dd:	88 0c 10             	mov    %cl,(%eax,%edx,1)
 80492e0:	83 c2 01             	add    $0x1,%edx
 80492e3:	39 da                	cmp    %ebx,%edx
 80492e5:	75 f2                	jne    80492d9 <memcpy+0x89>
 80492e7:	83 c4 24             	add    $0x24,%esp
 80492ea:	5b                   	pop    %ebx
 80492eb:	5e                   	pop    %esi
 80492ec:	c3                   	ret    

080492ed <memmove>:
 80492ed:	57                   	push   %edi
 80492ee:	56                   	push   %esi
 80492ef:	53                   	push   %ebx
 80492f0:	83 ec 20             	sub    $0x20,%esp
 80492f3:	8b 74 24 30          	mov    0x30(%esp),%esi
 80492f7:	8b 5c 24 34          	mov    0x34(%esp),%ebx
 80492fb:	8b 7c 24 38          	mov    0x38(%esp),%edi
 80492ff:	85 ff                	test   %edi,%edi
 8049301:	0f 94 c2             	sete   %dl
 8049304:	85 f6                	test   %esi,%esi
 8049306:	75 30                	jne    8049338 <memmove+0x4b>
 8049308:	84 d2                	test   %dl,%dl
 804930a:	75 2c                	jne    8049338 <memmove+0x4b>
 804930c:	c7 44 24 10 b1 a0 04 	movl   $0x804a0b1,0x10(%esp)
 8049313:	08 
 8049314:	c7 44 24 0c ca a0 04 	movl   $0x804a0ca,0xc(%esp)
 804931b:	08 
 804931c:	c7 44 24 08 c3 9f 04 	movl   $0x8049fc3,0x8(%esp)
 8049323:	08 
 8049324:	c7 44 24 04 1d 00 00 	movl   $0x1d,0x4(%esp)
 804932b:	00 
 804932c:	c7 04 24 e1 a0 04 08 	movl   $0x804a0e1,(%esp)
 8049333:	e8 7c ef ff ff       	call   80482b4 <debug_panic>
 8049338:	85 db                	test   %ebx,%ebx
 804933a:	75 30                	jne    804936c <memmove+0x7f>
 804933c:	84 d2                	test   %dl,%dl
 804933e:	75 2c                	jne    804936c <memmove+0x7f>
 8049340:	c7 44 24 10 f1 a0 04 	movl   $0x804a0f1,0x10(%esp)
 8049347:	08 
 8049348:	c7 44 24 0c ca a0 04 	movl   $0x804a0ca,0xc(%esp)
 804934f:	08 
 8049350:	c7 44 24 08 c3 9f 04 	movl   $0x8049fc3,0x8(%esp)
 8049357:	08 
 8049358:	c7 44 24 04 1e 00 00 	movl   $0x1e,0x4(%esp)
 804935f:	00 
 8049360:	c7 04 24 e1 a0 04 08 	movl   $0x804a0e1,(%esp)
 8049367:	e8 48 ef ff ff       	call   80482b4 <debug_panic>
 804936c:	39 de                	cmp    %ebx,%esi
 804936e:	73 1b                	jae    804938b <memmove+0x9e>
 8049370:	85 ff                	test   %edi,%edi
 8049372:	74 40                	je     80493b4 <memmove+0xc7>
 8049374:	ba 00 00 00 00       	mov    $0x0,%edx
 8049379:	0f b6 0c 13          	movzbl (%ebx,%edx,1),%ecx
 804937d:	88 0c 16             	mov    %cl,(%esi,%edx,1)
 8049380:	83 c2 01             	add    $0x1,%edx
 8049383:	39 fa                	cmp    %edi,%edx
 8049385:	75 f2                	jne    8049379 <memmove+0x8c>
 8049387:	01 fe                	add    %edi,%esi
 8049389:	eb 29                	jmp    80493b4 <memmove+0xc7>
 804938b:	8d 04 3e             	lea    (%esi,%edi,1),%eax
 804938e:	01 fb                	add    %edi,%ebx
 8049390:	8d 57 ff             	lea    -0x1(%edi),%edx
 8049393:	85 ff                	test   %edi,%edi
 8049395:	74 1b                	je     80493b2 <memmove+0xc5>
 8049397:	f7 df                	neg    %edi
 8049399:	89 f9                	mov    %edi,%ecx
 804939b:	01 fb                	add    %edi,%ebx
 804939d:	01 c1                	add    %eax,%ecx
 804939f:	89 ce                	mov    %ecx,%esi
 80493a1:	0f b6 04 13          	movzbl (%ebx,%edx,1),%eax
 80493a5:	88 04 11             	mov    %al,(%ecx,%edx,1)
 80493a8:	83 ea 01             	sub    $0x1,%edx
 80493ab:	83 fa ff             	cmp    $0xffffffff,%edx
 80493ae:	75 ef                	jne    804939f <memmove+0xb2>
 80493b0:	eb 02                	jmp    80493b4 <memmove+0xc7>
 80493b2:	89 c6                	mov    %eax,%esi
 80493b4:	89 f0                	mov    %esi,%eax
 80493b6:	83 c4 20             	add    $0x20,%esp
 80493b9:	5b                   	pop    %ebx
 80493ba:	5e                   	pop    %esi
 80493bb:	5f                   	pop    %edi
 80493bc:	c3                   	ret    

080493bd <memcmp>:
 80493bd:	57                   	push   %edi
 80493be:	56                   	push   %esi
 80493bf:	53                   	push   %ebx
 80493c0:	83 ec 20             	sub    $0x20,%esp
 80493c3:	8b 5c 24 30          	mov    0x30(%esp),%ebx
 80493c7:	8b 74 24 34          	mov    0x34(%esp),%esi
 80493cb:	8b 44 24 38          	mov    0x38(%esp),%eax
 80493cf:	85 c0                	test   %eax,%eax
 80493d1:	0f 94 c2             	sete   %dl
 80493d4:	85 db                	test   %ebx,%ebx
 80493d6:	75 30                	jne    8049408 <memcmp+0x4b>
 80493d8:	84 d2                	test   %dl,%dl
 80493da:	75 2c                	jne    8049408 <memcmp+0x4b>
 80493dc:	c7 44 24 10 0a a1 04 	movl   $0x804a10a,0x10(%esp)
 80493e3:	08 
 80493e4:	c7 44 24 0c ca a0 04 	movl   $0x804a0ca,0xc(%esp)
 80493eb:	08 
 80493ec:	c7 44 24 08 bc 9f 04 	movl   $0x8049fbc,0x8(%esp)
 80493f3:	08 
 80493f4:	c7 44 24 04 3a 00 00 	movl   $0x3a,0x4(%esp)
 80493fb:	00 
 80493fc:	c7 04 24 e1 a0 04 08 	movl   $0x804a0e1,(%esp)
 8049403:	e8 ac ee ff ff       	call   80482b4 <debug_panic>
 8049408:	85 f6                	test   %esi,%esi
 804940a:	75 04                	jne    8049410 <memcmp+0x53>
 804940c:	84 d2                	test   %dl,%dl
 804940e:	74 18                	je     8049428 <memcmp+0x6b>
 8049410:	8d 78 ff             	lea    -0x1(%eax),%edi
 8049413:	85 c0                	test   %eax,%eax
 8049415:	74 64                	je     804947b <memcmp+0xbe>
 8049417:	0f b6 13             	movzbl (%ebx),%edx
 804941a:	0f b6 0e             	movzbl (%esi),%ecx
 804941d:	b8 00 00 00 00       	mov    $0x0,%eax
 8049422:	38 ca                	cmp    %cl,%dl
 8049424:	74 4a                	je     8049470 <memcmp+0xb3>
 8049426:	eb 3c                	jmp    8049464 <memcmp+0xa7>
 8049428:	c7 44 24 10 21 a1 04 	movl   $0x804a121,0x10(%esp)
 804942f:	08 
 8049430:	c7 44 24 0c ca a0 04 	movl   $0x804a0ca,0xc(%esp)
 8049437:	08 
 8049438:	c7 44 24 08 bc 9f 04 	movl   $0x8049fbc,0x8(%esp)
 804943f:	08 
 8049440:	c7 44 24 04 3b 00 00 	movl   $0x3b,0x4(%esp)
 8049447:	00 
 8049448:	c7 04 24 e1 a0 04 08 	movl   $0x804a0e1,(%esp)
 804944f:	e8 60 ee ff ff       	call   80482b4 <debug_panic>
 8049454:	0f b6 54 03 01       	movzbl 0x1(%ebx,%eax,1),%edx
 8049459:	83 c0 01             	add    $0x1,%eax
 804945c:	0f b6 0c 06          	movzbl (%esi,%eax,1),%ecx
 8049460:	38 ca                	cmp    %cl,%dl
 8049462:	74 0c                	je     8049470 <memcmp+0xb3>
 8049464:	38 d1                	cmp    %dl,%cl
 8049466:	19 c0                	sbb    %eax,%eax
 8049468:	83 e0 02             	and    $0x2,%eax
 804946b:	83 e8 01             	sub    $0x1,%eax
 804946e:	eb 10                	jmp    8049480 <memcmp+0xc3>
 8049470:	39 f8                	cmp    %edi,%eax
 8049472:	75 e0                	jne    8049454 <memcmp+0x97>
 8049474:	b8 00 00 00 00       	mov    $0x0,%eax
 8049479:	eb 05                	jmp    8049480 <memcmp+0xc3>
 804947b:	b8 00 00 00 00       	mov    $0x0,%eax
 8049480:	83 c4 20             	add    $0x20,%esp
 8049483:	5b                   	pop    %ebx
 8049484:	5e                   	pop    %esi
 8049485:	5f                   	pop    %edi
 8049486:	c3                   	ret    

08049487 <strcmp>:
 8049487:	83 ec 2c             	sub    $0x2c,%esp
 804948a:	8b 4c 24 30          	mov    0x30(%esp),%ecx
 804948e:	8b 54 24 34          	mov    0x34(%esp),%edx
 8049492:	85 c9                	test   %ecx,%ecx
 8049494:	75 2c                	jne    80494c2 <strcmp+0x3b>
 8049496:	c7 44 24 10 38 a1 04 	movl   $0x804a138,0x10(%esp)
 804949d:	08 
 804949e:	c7 44 24 0c ca a0 04 	movl   $0x804a0ca,0xc(%esp)
 80494a5:	08 
 80494a6:	c7 44 24 08 b5 9f 04 	movl   $0x8049fb5,0x8(%esp)
 80494ad:	08 
 80494ae:	c7 44 24 04 4e 00 00 	movl   $0x4e,0x4(%esp)
 80494b5:	00 
 80494b6:	c7 04 24 e1 a0 04 08 	movl   $0x804a0e1,(%esp)
 80494bd:	e8 f2 ed ff ff       	call   80482b4 <debug_panic>
 80494c2:	85 d2                	test   %edx,%edx
 80494c4:	74 0e                	je     80494d4 <strcmp+0x4d>
 80494c6:	0f b6 01             	movzbl (%ecx),%eax
 80494c9:	84 c0                	test   %al,%al
 80494cb:	74 44                	je     8049511 <strcmp+0x8a>
 80494cd:	3a 02                	cmp    (%edx),%al
 80494cf:	90                   	nop
 80494d0:	74 2e                	je     8049500 <strcmp+0x79>
 80494d2:	eb 3d                	jmp    8049511 <strcmp+0x8a>
 80494d4:	c7 44 24 10 42 a1 04 	movl   $0x804a142,0x10(%esp)
 80494db:	08 
 80494dc:	c7 44 24 0c ca a0 04 	movl   $0x804a0ca,0xc(%esp)
 80494e3:	08 
 80494e4:	c7 44 24 08 b5 9f 04 	movl   $0x8049fb5,0x8(%esp)
 80494eb:	08 
 80494ec:	c7 44 24 04 4f 00 00 	movl   $0x4f,0x4(%esp)
 80494f3:	00 
 80494f4:	c7 04 24 e1 a0 04 08 	movl   $0x804a0e1,(%esp)
 80494fb:	e8 b4 ed ff ff       	call   80482b4 <debug_panic>
 8049500:	83 c1 01             	add    $0x1,%ecx
 8049503:	83 c2 01             	add    $0x1,%edx
 8049506:	0f b6 01             	movzbl (%ecx),%eax
 8049509:	84 c0                	test   %al,%al
 804950b:	74 04                	je     8049511 <strcmp+0x8a>
 804950d:	3a 02                	cmp    (%edx),%al
 804950f:	74 ef                	je     8049500 <strcmp+0x79>
 8049511:	0f b6 12             	movzbl (%edx),%edx
 8049514:	38 c2                	cmp    %al,%dl
 8049516:	77 0a                	ja     8049522 <strcmp+0x9b>
 8049518:	38 d0                	cmp    %dl,%al
 804951a:	0f 97 c0             	seta   %al
 804951d:	0f b6 c0             	movzbl %al,%eax
 8049520:	eb 05                	jmp    8049527 <strcmp+0xa0>
 8049522:	b8 ff ff ff ff       	mov    $0xffffffff,%eax
 8049527:	83 c4 2c             	add    $0x2c,%esp
 804952a:	c3                   	ret    

0804952b <memchr>:
 804952b:	56                   	push   %esi
 804952c:	53                   	push   %ebx
 804952d:	83 ec 24             	sub    $0x24,%esp
 8049530:	8b 44 24 30          	mov    0x30(%esp),%eax
 8049534:	8b 74 24 34          	mov    0x34(%esp),%esi
 8049538:	8b 54 24 38          	mov    0x38(%esp),%edx
 804953c:	89 f3                	mov    %esi,%ebx
 804953e:	85 c0                	test   %eax,%eax
 8049540:	75 04                	jne    8049546 <memchr+0x1b>
 8049542:	85 d2                	test   %edx,%edx
 8049544:	75 14                	jne    804955a <memchr+0x2f>
 8049546:	8d 4a ff             	lea    -0x1(%edx),%ecx
 8049549:	85 d2                	test   %edx,%edx
 804954b:	74 4e                	je     804959b <memchr+0x70>
 804954d:	89 f2                	mov    %esi,%edx
 804954f:	38 10                	cmp    %dl,(%eax)
 8049551:	74 4d                	je     80495a0 <memchr+0x75>
 8049553:	ba 00 00 00 00       	mov    $0x0,%edx
 8049558:	eb 33                	jmp    804958d <memchr+0x62>
 804955a:	c7 44 24 10 4c a1 04 	movl   $0x804a14c,0x10(%esp)
 8049561:	08 
 8049562:	c7 44 24 0c ca a0 04 	movl   $0x804a0ca,0xc(%esp)
 8049569:	08 
 804956a:	c7 44 24 08 ae 9f 04 	movl   $0x8049fae,0x8(%esp)
 8049571:	08 
 8049572:	c7 44 24 04 63 00 00 	movl   $0x63,0x4(%esp)
 8049579:	00 
 804957a:	c7 04 24 e1 a0 04 08 	movl   $0x804a0e1,(%esp)
 8049581:	e8 2e ed ff ff       	call   80482b4 <debug_panic>
 8049586:	83 c2 01             	add    $0x1,%edx
 8049589:	38 18                	cmp    %bl,(%eax)
 804958b:	74 13                	je     80495a0 <memchr+0x75>
 804958d:	83 c0 01             	add    $0x1,%eax
 8049590:	39 ca                	cmp    %ecx,%edx
 8049592:	75 f2                	jne    8049586 <memchr+0x5b>
 8049594:	b8 00 00 00 00       	mov    $0x0,%eax
 8049599:	eb 05                	jmp    80495a0 <memchr+0x75>
 804959b:	b8 00 00 00 00       	mov    $0x0,%eax
 80495a0:	83 c4 24             	add    $0x24,%esp
 80495a3:	5b                   	pop    %ebx
 80495a4:	5e                   	pop    %esi
 80495a5:	c3                   	ret    

080495a6 <strchr>:
 80495a6:	53                   	push   %ebx
 80495a7:	83 ec 28             	sub    $0x28,%esp
 80495aa:	8b 44 24 30          	mov    0x30(%esp),%eax
 80495ae:	8b 54 24 34          	mov    0x34(%esp),%edx
 80495b2:	85 c0                	test   %eax,%eax
 80495b4:	74 0b                	je     80495c1 <strchr+0x1b>
 80495b6:	89 d1                	mov    %edx,%ecx
 80495b8:	0f b6 18             	movzbl (%eax),%ebx
 80495bb:	38 d3                	cmp    %dl,%bl
 80495bd:	75 2e                	jne    80495ed <strchr+0x47>
 80495bf:	eb 4e                	jmp    804960f <strchr+0x69>
 80495c1:	c7 44 24 10 67 a1 04 	movl   $0x804a167,0x10(%esp)
 80495c8:	08 
 80495c9:	c7 44 24 0c ca a0 04 	movl   $0x804a0ca,0xc(%esp)
 80495d0:	08 
 80495d1:	c7 44 24 08 a7 9f 04 	movl   $0x8049fa7,0x8(%esp)
 80495d8:	08 
 80495d9:	c7 44 24 04 75 00 00 	movl   $0x75,0x4(%esp)
 80495e0:	00 
 80495e1:	c7 04 24 e1 a0 04 08 	movl   $0x804a0e1,(%esp)
 80495e8:	e8 c7 ec ff ff       	call   80482b4 <debug_panic>
 80495ed:	84 db                	test   %bl,%bl
 80495ef:	75 06                	jne    80495f7 <strchr+0x51>
 80495f1:	eb 10                	jmp    8049603 <strchr+0x5d>
 80495f3:	84 d2                	test   %dl,%dl
 80495f5:	74 13                	je     804960a <strchr+0x64>
 80495f7:	83 c0 01             	add    $0x1,%eax
 80495fa:	0f b6 10             	movzbl (%eax),%edx
 80495fd:	38 ca                	cmp    %cl,%dl
 80495ff:	75 f2                	jne    80495f3 <strchr+0x4d>
 8049601:	eb 0c                	jmp    804960f <strchr+0x69>
 8049603:	b8 00 00 00 00       	mov    $0x0,%eax
 8049608:	eb 05                	jmp    804960f <strchr+0x69>
 804960a:	b8 00 00 00 00       	mov    $0x0,%eax
 804960f:	83 c4 28             	add    $0x28,%esp
 8049612:	5b                   	pop    %ebx
 8049613:	c3                   	ret    

08049614 <strcspn>:
 8049614:	57                   	push   %edi
 8049615:	56                   	push   %esi
 8049616:	53                   	push   %ebx
 8049617:	83 ec 10             	sub    $0x10,%esp
 804961a:	8b 74 24 20          	mov    0x20(%esp),%esi
 804961e:	8b 7c 24 24          	mov    0x24(%esp),%edi
 8049622:	0f b6 16             	movzbl (%esi),%edx
 8049625:	84 d2                	test   %dl,%dl
 8049627:	74 25                	je     804964e <strcspn+0x3a>
 8049629:	bb 00 00 00 00       	mov    $0x0,%ebx
 804962e:	0f be d2             	movsbl %dl,%edx
 8049631:	89 54 24 04          	mov    %edx,0x4(%esp)
 8049635:	89 3c 24             	mov    %edi,(%esp)
 8049638:	e8 69 ff ff ff       	call   80495a6 <strchr>
 804963d:	85 c0                	test   %eax,%eax
 804963f:	75 12                	jne    8049653 <strcspn+0x3f>
 8049641:	83 c3 01             	add    $0x1,%ebx
 8049644:	0f b6 14 1e          	movzbl (%esi,%ebx,1),%edx
 8049648:	84 d2                	test   %dl,%dl
 804964a:	75 e2                	jne    804962e <strcspn+0x1a>
 804964c:	eb 05                	jmp    8049653 <strcspn+0x3f>
 804964e:	bb 00 00 00 00       	mov    $0x0,%ebx
 8049653:	89 d8                	mov    %ebx,%eax
 8049655:	83 c4 10             	add    $0x10,%esp
 8049658:	5b                   	pop    %ebx
 8049659:	5e                   	pop    %esi
 804965a:	5f                   	pop    %edi
 804965b:	c3                   	ret    

0804965c <strpbrk>:
 804965c:	56                   	push   %esi
 804965d:	53                   	push   %ebx
 804965e:	83 ec 14             	sub    $0x14,%esp
 8049661:	8b 5c 24 20          	mov    0x20(%esp),%ebx
 8049665:	8b 74 24 24          	mov    0x24(%esp),%esi
 8049669:	0f b6 13             	movzbl (%ebx),%edx
 804966c:	84 d2                	test   %dl,%dl
 804966e:	74 1f                	je     804968f <strpbrk+0x33>
 8049670:	0f be d2             	movsbl %dl,%edx
 8049673:	89 54 24 04          	mov    %edx,0x4(%esp)
 8049677:	89 34 24             	mov    %esi,(%esp)
 804967a:	e8 27 ff ff ff       	call   80495a6 <strchr>
 804967f:	85 c0                	test   %eax,%eax
 8049681:	75 13                	jne    8049696 <strpbrk+0x3a>
 8049683:	83 c3 01             	add    $0x1,%ebx
 8049686:	0f b6 13             	movzbl (%ebx),%edx
 8049689:	84 d2                	test   %dl,%dl
 804968b:	75 e3                	jne    8049670 <strpbrk+0x14>
 804968d:	eb 09                	jmp    8049698 <strpbrk+0x3c>
 804968f:	b8 00 00 00 00       	mov    $0x0,%eax
 8049694:	eb 02                	jmp    8049698 <strpbrk+0x3c>
 8049696:	89 d8                	mov    %ebx,%eax
 8049698:	83 c4 14             	add    $0x14,%esp
 804969b:	5b                   	pop    %ebx
 804969c:	5e                   	pop    %esi
 804969d:	c3                   	ret    

0804969e <strrchr>:
 804969e:	53                   	push   %ebx
 804969f:	8b 54 24 08          	mov    0x8(%esp),%edx
 80496a3:	0f b6 5c 24 0c       	movzbl 0xc(%esp),%ebx
 80496a8:	0f b6 0a             	movzbl (%edx),%ecx
 80496ab:	84 c9                	test   %cl,%cl
 80496ad:	74 16                	je     80496c5 <strrchr+0x27>
 80496af:	b8 00 00 00 00       	mov    $0x0,%eax
 80496b4:	38 cb                	cmp    %cl,%bl
 80496b6:	0f 44 c2             	cmove  %edx,%eax
 80496b9:	83 c2 01             	add    $0x1,%edx
 80496bc:	0f b6 0a             	movzbl (%edx),%ecx
 80496bf:	84 c9                	test   %cl,%cl
 80496c1:	75 f1                	jne    80496b4 <strrchr+0x16>
 80496c3:	eb 05                	jmp    80496ca <strrchr+0x2c>
 80496c5:	b8 00 00 00 00       	mov    $0x0,%eax
 80496ca:	5b                   	pop    %ebx
 80496cb:	c3                   	ret    

080496cc <strspn>:
 80496cc:	57                   	push   %edi
 80496cd:	56                   	push   %esi
 80496ce:	53                   	push   %ebx
 80496cf:	83 ec 10             	sub    $0x10,%esp
 80496d2:	8b 74 24 20          	mov    0x20(%esp),%esi
 80496d6:	8b 7c 24 24          	mov    0x24(%esp),%edi
 80496da:	0f b6 16             	movzbl (%esi),%edx
 80496dd:	84 d2                	test   %dl,%dl
 80496df:	74 25                	je     8049706 <strspn+0x3a>
 80496e1:	bb 00 00 00 00       	mov    $0x0,%ebx
 80496e6:	0f be d2             	movsbl %dl,%edx
 80496e9:	89 54 24 04          	mov    %edx,0x4(%esp)
 80496ed:	89 3c 24             	mov    %edi,(%esp)
 80496f0:	e8 b1 fe ff ff       	call   80495a6 <strchr>
 80496f5:	85 c0                	test   %eax,%eax
 80496f7:	74 12                	je     804970b <strspn+0x3f>
 80496f9:	83 c3 01             	add    $0x1,%ebx
 80496fc:	0f b6 14 1e          	movzbl (%esi,%ebx,1),%edx
 8049700:	84 d2                	test   %dl,%dl
 8049702:	75 e2                	jne    80496e6 <strspn+0x1a>
 8049704:	eb 05                	jmp    804970b <strspn+0x3f>
 8049706:	bb 00 00 00 00       	mov    $0x0,%ebx
 804970b:	89 d8                	mov    %ebx,%eax
 804970d:	83 c4 10             	add    $0x10,%esp
 8049710:	5b                   	pop    %ebx
 8049711:	5e                   	pop    %esi
 8049712:	5f                   	pop    %edi
 8049713:	c3                   	ret    

08049714 <strtok_r>:
 8049714:	55                   	push   %ebp
 8049715:	57                   	push   %edi
 8049716:	56                   	push   %esi
 8049717:	53                   	push   %ebx
 8049718:	83 ec 2c             	sub    $0x2c,%esp
 804971b:	8b 5c 24 40          	mov    0x40(%esp),%ebx
 804971f:	8b 74 24 44          	mov    0x44(%esp),%esi
 8049723:	85 f6                	test   %esi,%esi
 8049725:	75 2c                	jne    8049753 <strtok_r+0x3f>
 8049727:	c7 44 24 10 76 a1 04 	movl   $0x804a176,0x10(%esp)
 804972e:	08 
 804972f:	c7 44 24 0c ca a0 04 	movl   $0x804a0ca,0xc(%esp)
 8049736:	08 
 8049737:	c7 44 24 08 9e 9f 04 	movl   $0x8049f9e,0x8(%esp)
 804973e:	08 
 804973f:	c7 44 24 04 ef 00 00 	movl   $0xef,0x4(%esp)
 8049746:	00 
 8049747:	c7 04 24 e1 a0 04 08 	movl   $0x804a0e1,(%esp)
 804974e:	e8 61 eb ff ff       	call   80482b4 <debug_panic>
 8049753:	83 7c 24 48 00       	cmpl   $0x0,0x48(%esp)
 8049758:	75 2c                	jne    8049786 <strtok_r+0x72>
 804975a:	c7 44 24 10 89 a1 04 	movl   $0x804a189,0x10(%esp)
 8049761:	08 
 8049762:	c7 44 24 0c ca a0 04 	movl   $0x804a0ca,0xc(%esp)
 8049769:	08 
 804976a:	c7 44 24 08 9e 9f 04 	movl   $0x8049f9e,0x8(%esp)
 8049771:	08 
 8049772:	c7 44 24 04 f0 00 00 	movl   $0xf0,0x4(%esp)
 8049779:	00 
 804977a:	c7 04 24 e1 a0 04 08 	movl   $0x804a0e1,(%esp)
 8049781:	e8 2e eb ff ff       	call   80482b4 <debug_panic>
 8049786:	85 db                	test   %ebx,%ebx
 8049788:	75 4c                	jne    80497d6 <strtok_r+0xc2>
 804978a:	8b 44 24 48          	mov    0x48(%esp),%eax
 804978e:	8b 18                	mov    (%eax),%ebx
 8049790:	85 db                	test   %ebx,%ebx
 8049792:	75 42                	jne    80497d6 <strtok_r+0xc2>
 8049794:	c7 44 24 10 7f a1 04 	movl   $0x804a17f,0x10(%esp)
 804979b:	08 
 804979c:	c7 44 24 0c ca a0 04 	movl   $0x804a0ca,0xc(%esp)
 80497a3:	08 
 80497a4:	c7 44 24 08 9e 9f 04 	movl   $0x8049f9e,0x8(%esp)
 80497ab:	08 
 80497ac:	c7 44 24 04 f6 00 00 	movl   $0xf6,0x4(%esp)
 80497b3:	00 
 80497b4:	c7 04 24 e1 a0 04 08 	movl   $0x804a0e1,(%esp)
 80497bb:	e8 f4 ea ff ff       	call   80482b4 <debug_panic>
 80497c0:	89 f8                	mov    %edi,%eax
 80497c2:	84 c0                	test   %al,%al
 80497c4:	75 0d                	jne    80497d3 <strtok_r+0xbf>
 80497c6:	8b 44 24 48          	mov    0x48(%esp),%eax
 80497ca:	89 18                	mov    %ebx,(%eax)
 80497cc:	b8 00 00 00 00       	mov    $0x0,%eax
 80497d1:	eb 56                	jmp    8049829 <strtok_r+0x115>
 80497d3:	83 c3 01             	add    $0x1,%ebx
 80497d6:	0f b6 3b             	movzbl (%ebx),%edi
 80497d9:	89 f8                	mov    %edi,%eax
 80497db:	0f be c0             	movsbl %al,%eax
 80497de:	89 44 24 04          	mov    %eax,0x4(%esp)
 80497e2:	89 34 24             	mov    %esi,(%esp)
 80497e5:	e8 bc fd ff ff       	call   80495a6 <strchr>
 80497ea:	85 c0                	test   %eax,%eax
 80497ec:	75 d2                	jne    80497c0 <strtok_r+0xac>
 80497ee:	89 df                	mov    %ebx,%edi
 80497f0:	83 c7 01             	add    $0x1,%edi
 80497f3:	0f b6 2f             	movzbl (%edi),%ebp
 80497f6:	89 e8                	mov    %ebp,%eax
 80497f8:	0f be c0             	movsbl %al,%eax
 80497fb:	89 44 24 04          	mov    %eax,0x4(%esp)
 80497ff:	89 34 24             	mov    %esi,(%esp)
 8049802:	e8 9f fd ff ff       	call   80495a6 <strchr>
 8049807:	85 c0                	test   %eax,%eax
 8049809:	74 e5                	je     80497f0 <strtok_r+0xdc>
 804980b:	89 e8                	mov    %ebp,%eax
 804980d:	84 c0                	test   %al,%al
 804980f:	74 10                	je     8049821 <strtok_r+0x10d>
 8049811:	c6 07 00             	movb   $0x0,(%edi)
 8049814:	83 c7 01             	add    $0x1,%edi
 8049817:	8b 44 24 48          	mov    0x48(%esp),%eax
 804981b:	89 38                	mov    %edi,(%eax)
 804981d:	89 d8                	mov    %ebx,%eax
 804981f:	eb 08                	jmp    8049829 <strtok_r+0x115>
 8049821:	8b 44 24 48          	mov    0x48(%esp),%eax
 8049825:	89 38                	mov    %edi,(%eax)
 8049827:	89 d8                	mov    %ebx,%eax
 8049829:	83 c4 2c             	add    $0x2c,%esp
 804982c:	5b                   	pop    %ebx
 804982d:	5e                   	pop    %esi
 804982e:	5f                   	pop    %edi
 804982f:	5d                   	pop    %ebp
 8049830:	c3                   	ret    

08049831 <memset>:
 8049831:	56                   	push   %esi
 8049832:	53                   	push   %ebx
 8049833:	83 ec 24             	sub    $0x24,%esp
 8049836:	8b 44 24 30          	mov    0x30(%esp),%eax
 804983a:	8b 5c 24 34          	mov    0x34(%esp),%ebx
 804983e:	8b 74 24 38          	mov    0x38(%esp),%esi
 8049842:	85 c0                	test   %eax,%eax
 8049844:	75 04                	jne    804984a <memset+0x19>
 8049846:	85 f6                	test   %esi,%esi
 8049848:	75 0b                	jne    8049855 <memset+0x24>
 804984a:	8d 0c 30             	lea    (%eax,%esi,1),%ecx
 804984d:	89 c2                	mov    %eax,%edx
 804984f:	85 f6                	test   %esi,%esi
 8049851:	75 2e                	jne    8049881 <memset+0x50>
 8049853:	eb 36                	jmp    804988b <memset+0x5a>
 8049855:	c7 44 24 10 b1 a0 04 	movl   $0x804a0b1,0x10(%esp)
 804985c:	08 
 804985d:	c7 44 24 0c ca a0 04 	movl   $0x804a0ca,0xc(%esp)
 8049864:	08 
 8049865:	c7 44 24 08 97 9f 04 	movl   $0x8049f97,0x8(%esp)
 804986c:	08 
 804986d:	c7 44 24 04 1b 01 00 	movl   $0x11b,0x4(%esp)
 8049874:	00 
 8049875:	c7 04 24 e1 a0 04 08 	movl   $0x804a0e1,(%esp)
 804987c:	e8 33 ea ff ff       	call   80482b4 <debug_panic>
 8049881:	83 c2 01             	add    $0x1,%edx
 8049884:	88 5a ff             	mov    %bl,-0x1(%edx)
 8049887:	39 ca                	cmp    %ecx,%edx
 8049889:	75 f6                	jne    8049881 <memset+0x50>
 804988b:	83 c4 24             	add    $0x24,%esp
 804988e:	5b                   	pop    %ebx
 804988f:	5e                   	pop    %esi
 8049890:	c3                   	ret    

08049891 <strlen>:
 8049891:	83 ec 2c             	sub    $0x2c,%esp
 8049894:	8b 54 24 30          	mov    0x30(%esp),%edx
 8049898:	85 d2                	test   %edx,%edx
 804989a:	74 09                	je     80498a5 <strlen+0x14>
 804989c:	89 d0                	mov    %edx,%eax
 804989e:	80 3a 00             	cmpb   $0x0,(%edx)
 80498a1:	74 38                	je     80498db <strlen+0x4a>
 80498a3:	eb 2c                	jmp    80498d1 <strlen+0x40>
 80498a5:	c7 44 24 10 67 a1 04 	movl   $0x804a167,0x10(%esp)
 80498ac:	08 
 80498ad:	c7 44 24 0c ca a0 04 	movl   $0x804a0ca,0xc(%esp)
 80498b4:	08 
 80498b5:	c7 44 24 08 90 9f 04 	movl   $0x8049f90,0x8(%esp)
 80498bc:	08 
 80498bd:	c7 44 24 04 29 01 00 	movl   $0x129,0x4(%esp)
 80498c4:	00 
 80498c5:	c7 04 24 e1 a0 04 08 	movl   $0x804a0e1,(%esp)
 80498cc:	e8 e3 e9 ff ff       	call   80482b4 <debug_panic>
 80498d1:	89 d0                	mov    %edx,%eax
 80498d3:	83 c0 01             	add    $0x1,%eax
 80498d6:	80 38 00             	cmpb   $0x0,(%eax)
 80498d9:	75 f8                	jne    80498d3 <strlen+0x42>
 80498db:	29 d0                	sub    %edx,%eax
 80498dd:	83 c4 2c             	add    $0x2c,%esp
 80498e0:	c3                   	ret    

080498e1 <strstr>:
 80498e1:	55                   	push   %ebp
 80498e2:	57                   	push   %edi
 80498e3:	56                   	push   %esi
 80498e4:	53                   	push   %ebx
 80498e5:	83 ec 1c             	sub    $0x1c,%esp
 80498e8:	8b 6c 24 34          	mov    0x34(%esp),%ebp
 80498ec:	bb ff ff ff ff       	mov    $0xffffffff,%ebx
 80498f1:	8b 7c 24 30          	mov    0x30(%esp),%edi
 80498f5:	b8 00 00 00 00       	mov    $0x0,%eax
 80498fa:	89 d9                	mov    %ebx,%ecx
 80498fc:	f2 ae                	repnz scas %es:(%edi),%al
 80498fe:	f7 d1                	not    %ecx
 8049900:	8d 51 ff             	lea    -0x1(%ecx),%edx
 8049903:	89 ef                	mov    %ebp,%edi
 8049905:	89 d9                	mov    %ebx,%ecx
 8049907:	f2 ae                	repnz scas %es:(%edi),%al
 8049909:	f7 d1                	not    %ecx
 804990b:	8d 79 ff             	lea    -0x1(%ecx),%edi
 804990e:	39 fa                	cmp    %edi,%edx
 8049910:	72 30                	jb     8049942 <strstr+0x61>
 8049912:	29 fa                	sub    %edi,%edx
 8049914:	89 54 24 0c          	mov    %edx,0xc(%esp)
 8049918:	bb 00 00 00 00       	mov    $0x0,%ebx
 804991d:	89 de                	mov    %ebx,%esi
 804991f:	03 74 24 30          	add    0x30(%esp),%esi
 8049923:	89 7c 24 08          	mov    %edi,0x8(%esp)
 8049927:	89 6c 24 04          	mov    %ebp,0x4(%esp)
 804992b:	89 34 24             	mov    %esi,(%esp)
 804992e:	e8 8a fa ff ff       	call   80493bd <memcmp>
 8049933:	85 c0                	test   %eax,%eax
 8049935:	74 12                	je     8049949 <strstr+0x68>
 8049937:	83 c3 01             	add    $0x1,%ebx
 804993a:	3b 5c 24 0c          	cmp    0xc(%esp),%ebx
 804993e:	76 dd                	jbe    804991d <strstr+0x3c>
 8049940:	eb 0b                	jmp    804994d <strstr+0x6c>
 8049942:	b8 00 00 00 00       	mov    $0x0,%eax
 8049947:	eb 09                	jmp    8049952 <strstr+0x71>
 8049949:	89 f0                	mov    %esi,%eax
 804994b:	eb 05                	jmp    8049952 <strstr+0x71>
 804994d:	b8 00 00 00 00       	mov    $0x0,%eax
 8049952:	83 c4 1c             	add    $0x1c,%esp
 8049955:	5b                   	pop    %ebx
 8049956:	5e                   	pop    %esi
 8049957:	5f                   	pop    %edi
 8049958:	5d                   	pop    %ebp
 8049959:	c3                   	ret    

0804995a <strnlen>:
 804995a:	8b 54 24 04          	mov    0x4(%esp),%edx
 804995e:	8b 4c 24 08          	mov    0x8(%esp),%ecx
 8049962:	80 3a 00             	cmpb   $0x0,(%edx)
 8049965:	74 18                	je     804997f <strnlen+0x25>
 8049967:	b8 00 00 00 00       	mov    $0x0,%eax
 804996c:	85 c9                	test   %ecx,%ecx
 804996e:	74 14                	je     8049984 <strnlen+0x2a>
 8049970:	83 c0 01             	add    $0x1,%eax
 8049973:	80 3c 02 00          	cmpb   $0x0,(%edx,%eax,1)
 8049977:	74 0b                	je     8049984 <strnlen+0x2a>
 8049979:	39 c8                	cmp    %ecx,%eax
 804997b:	74 07                	je     8049984 <strnlen+0x2a>
 804997d:	eb f1                	jmp    8049970 <strnlen+0x16>
 804997f:	b8 00 00 00 00       	mov    $0x0,%eax
 8049984:	f3 c3                	repz ret 

08049986 <strlcpy>:
 8049986:	57                   	push   %edi
 8049987:	56                   	push   %esi
 8049988:	53                   	push   %ebx
 8049989:	83 ec 20             	sub    $0x20,%esp
 804998c:	8b 5c 24 30          	mov    0x30(%esp),%ebx
 8049990:	8b 54 24 34          	mov    0x34(%esp),%edx
 8049994:	8b 74 24 38          	mov    0x38(%esp),%esi
 8049998:	85 db                	test   %ebx,%ebx
 804999a:	75 2c                	jne    80499c8 <strlcpy+0x42>
 804999c:	c7 44 24 10 9a a1 04 	movl   $0x804a19a,0x10(%esp)
 80499a3:	08 
 80499a4:	c7 44 24 0c ca a0 04 	movl   $0x804a0ca,0xc(%esp)
 80499ab:	08 
 80499ac:	c7 44 24 08 88 9f 04 	movl   $0x8049f88,0x8(%esp)
 80499b3:	08 
 80499b4:	c7 44 24 04 4a 01 00 	movl   $0x14a,0x4(%esp)
 80499bb:	00 
 80499bc:	c7 04 24 e1 a0 04 08 	movl   $0x804a0e1,(%esp)
 80499c3:	e8 ec e8 ff ff       	call   80482b4 <debug_panic>
 80499c8:	85 d2                	test   %edx,%edx
 80499ca:	75 2c                	jne    80499f8 <strlcpy+0x72>
 80499cc:	c7 44 24 10 a6 a1 04 	movl   $0x804a1a6,0x10(%esp)
 80499d3:	08 
 80499d4:	c7 44 24 0c ca a0 04 	movl   $0x804a0ca,0xc(%esp)
 80499db:	08 
 80499dc:	c7 44 24 08 88 9f 04 	movl   $0x8049f88,0x8(%esp)
 80499e3:	08 
 80499e4:	c7 44 24 04 4b 01 00 	movl   $0x14b,0x4(%esp)
 80499eb:	00 
 80499ec:	c7 04 24 e1 a0 04 08 	movl   $0x804a0e1,(%esp)
 80499f3:	e8 bc e8 ff ff       	call   80482b4 <debug_panic>
 80499f8:	89 d7                	mov    %edx,%edi
 80499fa:	b8 00 00 00 00       	mov    $0x0,%eax
 80499ff:	b9 ff ff ff ff       	mov    $0xffffffff,%ecx
 8049a04:	f2 ae                	repnz scas %es:(%edi),%al
 8049a06:	f7 d1                	not    %ecx
 8049a08:	8d 79 ff             	lea    -0x1(%ecx),%edi
 8049a0b:	85 f6                	test   %esi,%esi
 8049a0d:	74 1c                	je     8049a2b <strlcpy+0xa5>
 8049a0f:	83 ee 01             	sub    $0x1,%esi
 8049a12:	39 f7                	cmp    %esi,%edi
 8049a14:	0f 46 f7             	cmovbe %edi,%esi
 8049a17:	89 74 24 08          	mov    %esi,0x8(%esp)
 8049a1b:	89 54 24 04          	mov    %edx,0x4(%esp)
 8049a1f:	89 1c 24             	mov    %ebx,(%esp)
 8049a22:	e8 29 f8 ff ff       	call   8049250 <memcpy>
 8049a27:	c6 04 33 00          	movb   $0x0,(%ebx,%esi,1)
 8049a2b:	89 f8                	mov    %edi,%eax
 8049a2d:	83 c4 20             	add    $0x20,%esp
 8049a30:	5b                   	pop    %ebx
 8049a31:	5e                   	pop    %esi
 8049a32:	5f                   	pop    %edi
 8049a33:	c3                   	ret    

08049a34 <strlcat>:
 8049a34:	55                   	push   %ebp
 8049a35:	57                   	push   %edi
 8049a36:	56                   	push   %esi
 8049a37:	53                   	push   %ebx
 8049a38:	83 ec 2c             	sub    $0x2c,%esp
 8049a3b:	8b 6c 24 40          	mov    0x40(%esp),%ebp
 8049a3f:	8b 54 24 44          	mov    0x44(%esp),%edx
 8049a43:	85 ed                	test   %ebp,%ebp
 8049a45:	75 2c                	jne    8049a73 <strlcat+0x3f>
 8049a47:	c7 44 24 10 9a a1 04 	movl   $0x804a19a,0x10(%esp)
 8049a4e:	08 
 8049a4f:	c7 44 24 0c ca a0 04 	movl   $0x804a0ca,0xc(%esp)
 8049a56:	08 
 8049a57:	c7 44 24 08 80 9f 04 	movl   $0x8049f80,0x8(%esp)
 8049a5e:	08 
 8049a5f:	c7 44 24 04 68 01 00 	movl   $0x168,0x4(%esp)
 8049a66:	00 
 8049a67:	c7 04 24 e1 a0 04 08 	movl   $0x804a0e1,(%esp)
 8049a6e:	e8 41 e8 ff ff       	call   80482b4 <debug_panic>
 8049a73:	85 d2                	test   %edx,%edx
 8049a75:	75 2c                	jne    8049aa3 <strlcat+0x6f>
 8049a77:	c7 44 24 10 a6 a1 04 	movl   $0x804a1a6,0x10(%esp)
 8049a7e:	08 
 8049a7f:	c7 44 24 0c ca a0 04 	movl   $0x804a0ca,0xc(%esp)
 8049a86:	08 
 8049a87:	c7 44 24 08 80 9f 04 	movl   $0x8049f80,0x8(%esp)
 8049a8e:	08 
 8049a8f:	c7 44 24 04 69 01 00 	movl   $0x169,0x4(%esp)
 8049a96:	00 
 8049a97:	c7 04 24 e1 a0 04 08 	movl   $0x804a0e1,(%esp)
 8049a9e:	e8 11 e8 ff ff       	call   80482b4 <debug_panic>
 8049aa3:	bb ff ff ff ff       	mov    $0xffffffff,%ebx
 8049aa8:	89 d7                	mov    %edx,%edi
 8049aaa:	b8 00 00 00 00       	mov    $0x0,%eax
 8049aaf:	89 d9                	mov    %ebx,%ecx
 8049ab1:	f2 ae                	repnz scas %es:(%edi),%al
 8049ab3:	f7 d1                	not    %ecx
 8049ab5:	8d 71 ff             	lea    -0x1(%ecx),%esi
 8049ab8:	89 ef                	mov    %ebp,%edi
 8049aba:	89 d9                	mov    %ebx,%ecx
 8049abc:	f2 ae                	repnz scas %es:(%edi),%al
 8049abe:	89 cb                	mov    %ecx,%ebx
 8049ac0:	f7 d3                	not    %ebx
 8049ac2:	83 eb 01             	sub    $0x1,%ebx
 8049ac5:	3b 5c 24 48          	cmp    0x48(%esp),%ebx
 8049ac9:	73 2c                	jae    8049af7 <strlcat+0xc3>
 8049acb:	83 7c 24 48 00       	cmpl   $0x0,0x48(%esp)
 8049ad0:	74 25                	je     8049af7 <strlcat+0xc3>
 8049ad2:	8b 44 24 48          	mov    0x48(%esp),%eax
 8049ad6:	8d 78 ff             	lea    -0x1(%eax),%edi
 8049ad9:	29 df                	sub    %ebx,%edi
 8049adb:	39 f7                	cmp    %esi,%edi
 8049add:	0f 47 fe             	cmova  %esi,%edi
 8049ae0:	01 dd                	add    %ebx,%ebp
 8049ae2:	89 7c 24 08          	mov    %edi,0x8(%esp)
 8049ae6:	89 54 24 04          	mov    %edx,0x4(%esp)
 8049aea:	89 2c 24             	mov    %ebp,(%esp)
 8049aed:	e8 5e f7 ff ff       	call   8049250 <memcpy>
 8049af2:	c6 44 3d 00 00       	movb   $0x0,0x0(%ebp,%edi,1)
 8049af7:	8d 04 33             	lea    (%ebx,%esi,1),%eax
 8049afa:	83 c4 2c             	add    $0x2c,%esp
 8049afd:	5b                   	pop    %ebx
 8049afe:	5e                   	pop    %esi
 8049aff:	5f                   	pop    %edi
 8049b00:	5d                   	pop    %ebp
 8049b01:	c3                   	ret    
 8049b02:	90                   	nop
 8049b03:	90                   	nop
 8049b04:	90                   	nop
 8049b05:	90                   	nop
 8049b06:	90                   	nop
 8049b07:	90                   	nop
 8049b08:	90                   	nop
 8049b09:	90                   	nop
 8049b0a:	90                   	nop
 8049b0b:	90                   	nop
 8049b0c:	90                   	nop
 8049b0d:	90                   	nop
 8049b0e:	90                   	nop
 8049b0f:	90                   	nop

08049b10 <udiv64>:
 8049b10:	55                   	push   %ebp
 8049b11:	57                   	push   %edi
 8049b12:	56                   	push   %esi
 8049b13:	53                   	push   %ebx
 8049b14:	83 ec 1c             	sub    $0x1c,%esp
 8049b17:	89 04 24             	mov    %eax,(%esp)
 8049b1a:	89 54 24 04          	mov    %edx,0x4(%esp)
 8049b1e:	8b 7c 24 30          	mov    0x30(%esp),%edi
 8049b22:	8b 6c 24 34          	mov    0x34(%esp),%ebp
 8049b26:	89 ea                	mov    %ebp,%edx
 8049b28:	85 ed                	test   %ebp,%ebp
 8049b2a:	75 37                	jne    8049b63 <udiv64+0x53>
 8049b2c:	8b 44 24 04          	mov    0x4(%esp),%eax
 8049b30:	ba 00 00 00 00       	mov    $0x0,%edx
 8049b35:	f7 f7                	div    %edi
 8049b37:	89 c6                	mov    %eax,%esi
 8049b39:	89 d3                	mov    %edx,%ebx
 8049b3b:	b9 00 00 00 00       	mov    $0x0,%ecx
 8049b40:	8b 04 24             	mov    (%esp),%eax
 8049b43:	ba 00 00 00 00       	mov    $0x0,%edx
 8049b48:	01 c8                	add    %ecx,%eax
 8049b4a:	11 da                	adc    %ebx,%edx
 8049b4c:	f7 f7                	div    %edi
 8049b4e:	ba 00 00 00 00       	mov    $0x0,%edx
 8049b53:	89 f7                	mov    %esi,%edi
 8049b55:	be 00 00 00 00       	mov    $0x0,%esi
 8049b5a:	01 f0                	add    %esi,%eax
 8049b5c:	11 fa                	adc    %edi,%edx
 8049b5e:	e9 f2 00 00 00       	jmp    8049c55 <udiv64+0x145>
 8049b63:	3b 6c 24 04          	cmp    0x4(%esp),%ebp
 8049b67:	0f 87 d4 00 00 00    	ja     8049c41 <udiv64+0x131>
 8049b6d:	72 09                	jb     8049b78 <udiv64+0x68>
 8049b6f:	3b 3c 24             	cmp    (%esp),%edi
 8049b72:	0f 87 c9 00 00 00    	ja     8049c41 <udiv64+0x131>
 8049b78:	89 d0                	mov    %edx,%eax
 8049b7a:	b9 00 00 00 00       	mov    $0x0,%ecx
 8049b7f:	81 fa ff ff 00 00    	cmp    $0xffff,%edx
 8049b85:	77 05                	ja     8049b8c <udiv64+0x7c>
 8049b87:	c1 e0 10             	shl    $0x10,%eax
 8049b8a:	b1 10                	mov    $0x10,%cl
 8049b8c:	3d ff ff ff 00       	cmp    $0xffffff,%eax
 8049b91:	77 06                	ja     8049b99 <udiv64+0x89>
 8049b93:	83 c1 08             	add    $0x8,%ecx
 8049b96:	c1 e0 08             	shl    $0x8,%eax
 8049b99:	3d ff ff ff 0f       	cmp    $0xfffffff,%eax
 8049b9e:	77 06                	ja     8049ba6 <udiv64+0x96>
 8049ba0:	83 c1 04             	add    $0x4,%ecx
 8049ba3:	c1 e0 04             	shl    $0x4,%eax
 8049ba6:	3d ff ff ff 3f       	cmp    $0x3fffffff,%eax
 8049bab:	77 06                	ja     8049bb3 <udiv64+0xa3>
 8049bad:	83 c1 02             	add    $0x2,%ecx
 8049bb0:	c1 e0 02             	shl    $0x2,%eax
 8049bb3:	3d 00 00 00 80       	cmp    $0x80000000,%eax
 8049bb8:	83 d1 00             	adc    $0x0,%ecx
 8049bbb:	8b 04 24             	mov    (%esp),%eax
 8049bbe:	8b 54 24 04          	mov    0x4(%esp),%edx
 8049bc2:	0f ac d0 01          	shrd   $0x1,%edx,%eax
 8049bc6:	d1 ea                	shr    %edx
 8049bc8:	89 fb                	mov    %edi,%ebx
 8049bca:	89 ee                	mov    %ebp,%esi
 8049bcc:	0f a5 fe             	shld   %cl,%edi,%esi
 8049bcf:	d3 e3                	shl    %cl,%ebx
 8049bd1:	f6 c1 20             	test   $0x20,%cl
 8049bd4:	74 02                	je     8049bd8 <udiv64+0xc8>
 8049bd6:	89 de                	mov    %ebx,%esi
 8049bd8:	89 74 24 0c          	mov    %esi,0xc(%esp)
 8049bdc:	f7 74 24 0c          	divl   0xc(%esp)
 8049be0:	89 c6                	mov    %eax,%esi
 8049be2:	b8 1f 00 00 00       	mov    $0x1f,%eax
 8049be7:	29 c8                	sub    %ecx,%eax
 8049be9:	89 c1                	mov    %eax,%ecx
 8049beb:	d3 ee                	shr    %cl,%esi
 8049bed:	89 74 24 10          	mov    %esi,0x10(%esp)
 8049bf1:	c7 44 24 14 00 00 00 	movl   $0x0,0x14(%esp)
 8049bf8:	00 
 8049bf9:	8b 44 24 10          	mov    0x10(%esp),%eax
 8049bfd:	8b 54 24 14          	mov    0x14(%esp),%edx
 8049c01:	83 c0 ff             	add    $0xffffffff,%eax
 8049c04:	83 d2 ff             	adc    $0xffffffff,%edx
 8049c07:	89 44 24 08          	mov    %eax,0x8(%esp)
 8049c0b:	89 54 24 0c          	mov    %edx,0xc(%esp)
 8049c0f:	89 c1                	mov    %eax,%ecx
 8049c11:	0f af d7             	imul   %edi,%edx
 8049c14:	0f af cd             	imul   %ebp,%ecx
 8049c17:	8d 34 0a             	lea    (%edx,%ecx,1),%esi
 8049c1a:	8b 44 24 08          	mov    0x8(%esp),%eax
 8049c1e:	f7 e7                	mul    %edi
 8049c20:	01 f2                	add    %esi,%edx
 8049c22:	8b 1c 24             	mov    (%esp),%ebx
 8049c25:	8b 74 24 04          	mov    0x4(%esp),%esi
 8049c29:	29 c3                	sub    %eax,%ebx
 8049c2b:	19 d6                	sbb    %edx,%esi
 8049c2d:	39 f5                	cmp    %esi,%ebp
 8049c2f:	72 1c                	jb     8049c4d <udiv64+0x13d>
 8049c31:	77 04                	ja     8049c37 <udiv64+0x127>
 8049c33:	39 df                	cmp    %ebx,%edi
 8049c35:	76 16                	jbe    8049c4d <udiv64+0x13d>
 8049c37:	8b 44 24 08          	mov    0x8(%esp),%eax
 8049c3b:	8b 54 24 0c          	mov    0xc(%esp),%edx
 8049c3f:	eb 14                	jmp    8049c55 <udiv64+0x145>
 8049c41:	b8 00 00 00 00       	mov    $0x0,%eax
 8049c46:	ba 00 00 00 00       	mov    $0x0,%edx
 8049c4b:	eb 08                	jmp    8049c55 <udiv64+0x145>
 8049c4d:	8b 44 24 10          	mov    0x10(%esp),%eax
 8049c51:	8b 54 24 14          	mov    0x14(%esp),%edx
 8049c55:	83 c4 1c             	add    $0x1c,%esp
 8049c58:	5b                   	pop    %ebx
 8049c59:	5e                   	pop    %esi
 8049c5a:	5f                   	pop    %edi
 8049c5b:	5d                   	pop    %ebp
 8049c5c:	c3                   	ret    

08049c5d <sdiv64>:
 8049c5d:	57                   	push   %edi
 8049c5e:	56                   	push   %esi
 8049c5f:	53                   	push   %ebx
 8049c60:	83 ec 10             	sub    $0x10,%esp
 8049c63:	89 44 24 08          	mov    %eax,0x8(%esp)
 8049c67:	89 54 24 0c          	mov    %edx,0xc(%esp)
 8049c6b:	8b 74 24 20          	mov    0x20(%esp),%esi
 8049c6f:	8b 7c 24 24          	mov    0x24(%esp),%edi
 8049c73:	85 d2                	test   %edx,%edx
 8049c75:	79 0f                	jns    8049c86 <sdiv64+0x29>
 8049c77:	8b 44 24 08          	mov    0x8(%esp),%eax
 8049c7b:	8b 54 24 0c          	mov    0xc(%esp),%edx
 8049c7f:	f7 d8                	neg    %eax
 8049c81:	83 d2 00             	adc    $0x0,%edx
 8049c84:	f7 da                	neg    %edx
 8049c86:	85 ff                	test   %edi,%edi
 8049c88:	78 06                	js     8049c90 <sdiv64+0x33>
 8049c8a:	89 f1                	mov    %esi,%ecx
 8049c8c:	89 fb                	mov    %edi,%ebx
 8049c8e:	eb 0b                	jmp    8049c9b <sdiv64+0x3e>
 8049c90:	89 f1                	mov    %esi,%ecx
 8049c92:	89 fb                	mov    %edi,%ebx
 8049c94:	f7 d9                	neg    %ecx
 8049c96:	83 d3 00             	adc    $0x0,%ebx
 8049c99:	f7 db                	neg    %ebx
 8049c9b:	89 0c 24             	mov    %ecx,(%esp)
 8049c9e:	89 5c 24 04          	mov    %ebx,0x4(%esp)
 8049ca2:	e8 69 fe ff ff       	call   8049b10 <udiv64>
 8049ca7:	8b 4c 24 0c          	mov    0xc(%esp),%ecx
 8049cab:	f7 d1                	not    %ecx
 8049cad:	c1 e9 1f             	shr    $0x1f,%ecx
 8049cb0:	89 fb                	mov    %edi,%ebx
 8049cb2:	c1 eb 1f             	shr    $0x1f,%ebx
 8049cb5:	89 c6                	mov    %eax,%esi
 8049cb7:	89 d7                	mov    %edx,%edi
 8049cb9:	f7 de                	neg    %esi
 8049cbb:	83 d7 00             	adc    $0x0,%edi
 8049cbe:	f7 df                	neg    %edi
 8049cc0:	39 cb                	cmp    %ecx,%ebx
 8049cc2:	74 04                	je     8049cc8 <sdiv64+0x6b>
 8049cc4:	89 c6                	mov    %eax,%esi
 8049cc6:	89 d7                	mov    %edx,%edi
 8049cc8:	89 f0                	mov    %esi,%eax
 8049cca:	89 fa                	mov    %edi,%edx
 8049ccc:	83 c4 10             	add    $0x10,%esp
 8049ccf:	5b                   	pop    %ebx
 8049cd0:	5e                   	pop    %esi
 8049cd1:	5f                   	pop    %edi
 8049cd2:	c3                   	ret    

08049cd3 <__divdi3>:
 8049cd3:	83 ec 0c             	sub    $0xc,%esp
 8049cd6:	8b 44 24 18          	mov    0x18(%esp),%eax
 8049cda:	8b 54 24 1c          	mov    0x1c(%esp),%edx
 8049cde:	89 04 24             	mov    %eax,(%esp)
 8049ce1:	89 54 24 04          	mov    %edx,0x4(%esp)
 8049ce5:	8b 44 24 10          	mov    0x10(%esp),%eax
 8049ce9:	8b 54 24 14          	mov    0x14(%esp),%edx
 8049ced:	e8 6b ff ff ff       	call   8049c5d <sdiv64>
 8049cf2:	83 c4 0c             	add    $0xc,%esp
 8049cf5:	c3                   	ret    

08049cf6 <__moddi3>:
 8049cf6:	56                   	push   %esi
 8049cf7:	53                   	push   %ebx
 8049cf8:	83 ec 0c             	sub    $0xc,%esp
 8049cfb:	8b 5c 24 18          	mov    0x18(%esp),%ebx
 8049cff:	8b 74 24 20          	mov    0x20(%esp),%esi
 8049d03:	89 34 24             	mov    %esi,(%esp)
 8049d06:	8b 44 24 24          	mov    0x24(%esp),%eax
 8049d0a:	89 44 24 04          	mov    %eax,0x4(%esp)
 8049d0e:	89 d8                	mov    %ebx,%eax
 8049d10:	8b 54 24 1c          	mov    0x1c(%esp),%edx
 8049d14:	e8 44 ff ff ff       	call   8049c5d <sdiv64>
 8049d19:	0f af f0             	imul   %eax,%esi
 8049d1c:	89 d8                	mov    %ebx,%eax
 8049d1e:	29 f0                	sub    %esi,%eax
 8049d20:	99                   	cltd   
 8049d21:	83 c4 0c             	add    $0xc,%esp
 8049d24:	5b                   	pop    %ebx
 8049d25:	5e                   	pop    %esi
 8049d26:	c3                   	ret    

08049d27 <__udivdi3>:
 8049d27:	83 ec 0c             	sub    $0xc,%esp
 8049d2a:	8b 44 24 18          	mov    0x18(%esp),%eax
 8049d2e:	8b 54 24 1c          	mov    0x1c(%esp),%edx
 8049d32:	89 04 24             	mov    %eax,(%esp)
 8049d35:	89 54 24 04          	mov    %edx,0x4(%esp)
 8049d39:	8b 44 24 10          	mov    0x10(%esp),%eax
 8049d3d:	8b 54 24 14          	mov    0x14(%esp),%edx
 8049d41:	e8 ca fd ff ff       	call   8049b10 <udiv64>
 8049d46:	83 c4 0c             	add    $0xc,%esp
 8049d49:	c3                   	ret    

08049d4a <__umoddi3>:
 8049d4a:	56                   	push   %esi
 8049d4b:	53                   	push   %ebx
 8049d4c:	83 ec 0c             	sub    $0xc,%esp
 8049d4f:	8b 5c 24 18          	mov    0x18(%esp),%ebx
 8049d53:	8b 74 24 20          	mov    0x20(%esp),%esi
 8049d57:	89 34 24             	mov    %esi,(%esp)
 8049d5a:	8b 44 24 24          	mov    0x24(%esp),%eax
 8049d5e:	89 44 24 04          	mov    %eax,0x4(%esp)
 8049d62:	89 d8                	mov    %ebx,%eax
 8049d64:	8b 54 24 1c          	mov    0x1c(%esp),%edx
 8049d68:	e8 a3 fd ff ff       	call   8049b10 <udiv64>
 8049d6d:	0f af f0             	imul   %eax,%esi
 8049d70:	89 d8                	mov    %ebx,%eax
 8049d72:	29 f0                	sub    %esi,%eax
 8049d74:	ba 00 00 00 00       	mov    $0x0,%edx
 8049d79:	83 c4 0c             	add    $0xc,%esp
 8049d7c:	5b                   	pop    %ebx
 8049d7d:	5e                   	pop    %esi
 8049d7e:	c3                   	ret    
